ccopy_reg
_reconstructor
p0
(cnetworkx.classes.graph
Graph
p1
c__builtin__
object
p2
Ntp3
Rp4
(dp5
S'node'
p6
(dp7
I0
(dp8
sI1
(dp9
sI2
(dp10
sI3
(dp11
sI4
(dp12
sI5
(dp13
sI6
(dp14
sI7
(dp15
sI8
(dp16
sI9
(dp17
sI10
(dp18
sI11
(dp19
sI12
(dp20
sI13
(dp21
sI14
(dp22
sI15
(dp23
sI16
(dp24
sI17
(dp25
sI18
(dp26
sI19
(dp27
sI20
(dp28
sI21
(dp29
sI22
(dp30
sI23
(dp31
sI24
(dp32
sI25
(dp33
sI26
(dp34
sI27
(dp35
sI28
(dp36
sI29
(dp37
sI30
(dp38
sI31
(dp39
sI32
(dp40
sI33
(dp41
sI34
(dp42
sI35
(dp43
sI36
(dp44
sI37
(dp45
sI38
(dp46
sI39
(dp47
sI40
(dp48
sI41
(dp49
sI42
(dp50
sI43
(dp51
sI44
(dp52
sI45
(dp53
sI46
(dp54
sI47
(dp55
sI48
(dp56
sI49
(dp57
sI50
(dp58
sI51
(dp59
sI52
(dp60
sI53
(dp61
sI54
(dp62
sI55
(dp63
sI56
(dp64
sI57
(dp65
sI58
(dp66
sI59
(dp67
sI60
(dp68
sI61
(dp69
sI62
(dp70
sI63
(dp71
sI64
(dp72
sI65
(dp73
sI66
(dp74
sI67
(dp75
sI68
(dp76
sI69
(dp77
sI70
(dp78
sI71
(dp79
sI72
(dp80
sI73
(dp81
sI74
(dp82
sI75
(dp83
sI76
(dp84
sI77
(dp85
sI78
(dp86
sI79
(dp87
sI80
(dp88
sI81
(dp89
sI82
(dp90
sI83
(dp91
sI84
(dp92
sI85
(dp93
sI86
(dp94
sI87
(dp95
sI88
(dp96
sI89
(dp97
ssS'graph'
p98
(dp99
S'name'
p100
S'(Powerlaw-Cluster Graph)_with_int_labels'
p101
ssS'edge'
p102
(dp103
I0
(dp104
I46
(dp105
sI15
(dp106
sI16
(dp107
sI17
(dp108
sI18
(dp109
sI19
(dp110
sI20
(dp111
sI21
(dp112
sI22
(dp113
sI26
(dp114
sI85
(dp115
ssI1
(dp116
I73
(dp117
sI15
(dp118
sI16
(dp119
sI18
(dp120
sI19
(dp121
sI21
(dp122
sI22
(dp123
sI24
(dp124
sI25
(dp125
sI29
(dp126
ssI2
(dp127
I72
(dp128
sI46
(dp129
sI15
(dp130
sI16
(dp131
sI17
(dp132
sI18
(dp133
sI19
(dp134
sI20
(dp135
sI21
(dp136
sI22
(dp137
sI23
(dp138
sI24
(dp139
sI25
(dp140
sI27
(dp141
sI28
(dp142
sI29
(dp143
ssI3
(dp144
I39
(dp145
sI15
(dp146
sI16
(dp147
sI17
(dp148
sI83
(dp149
sI21
(dp150
sI23
(dp151
sI27
(dp152
ssI4
(dp153
I33
(dp154
sI15
(dp155
sI16
(dp156
sI17
(dp157
sI18
(dp158
sI19
(dp159
sI20
(dp160
sI22
(dp161
sI23
(dp162
sI24
(dp163
sI25
(dp164
ssI5
(dp165
I15
(dp166
sI16
(dp167
sI17
(dp168
sI18
(dp169
sI19
(dp170
sI21
(dp171
sI24
(dp172
sI25
(dp173
ssI6
(dp174
I32
(dp175
sI80
(dp176
sI72
(dp177
sI15
(dp178
sI16
(dp179
sI17
(dp180
sI18
(dp181
sI19
(dp182
sI20
(dp183
sI21
(dp184
sI22
(dp185
sI28
(dp186
ssI7
(dp187
I15
(dp188
sI16
(dp189
sI17
(dp190
sI18
(dp191
sI19
(dp192
sI20
(dp193
sI22
(dp194
sI23
(dp195
sI24
(dp196
sI27
(dp197
sI29
(dp198
ssI8
(dp199
I15
(dp200
sI16
(dp201
sI17
(dp202
sI18
(dp203
sI19
(dp204
sI20
(dp205
sI22
(dp206
sI23
(dp207
sI25
(dp208
sI28
(dp209
sI30
(dp210
ssI9
(dp211
I80
(dp212
sI46
(dp213
sI15
(dp214
sI16
(dp215
sI17
(dp216
sI21
(dp217
sI24
(dp218
sI26
(dp219
sI28
(dp220
ssI10
(dp221
I76
(dp222
sI15
(dp223
sI16
(dp224
sI17
(dp225
sI18
(dp226
sI19
(dp227
sI20
(dp228
sI21
(dp229
sI23
(dp230
ssI11
(dp231
I15
(dp232
sI16
(dp233
sI17
(dp234
sI18
(dp235
sI19
(dp236
sI20
(dp237
sI22
(dp238
sI24
(dp239
sI26
(dp240
sI27
(dp241
ssI12
(dp242
I71
(dp243
sI15
(dp244
sI16
(dp245
sI17
(dp246
sI18
(dp247
sI19
(dp248
sI26
(dp249
ssI13
(dp250
I23
(dp251
sI20
(dp252
sI15
(dp253
ssI14
(dp254
I67
(dp255
sI70
(dp256
sI15
(dp257
sI16
(dp258
sI17
(dp259
sI18
(dp260
sI20
(dp261
sI21
(dp262
sI26
(dp263
sI53
(dp264
ssI15
(dp265
I0
g106
sI1
g118
sI2
g130
sI3
g146
sI4
g155
sI5
g166
sI6
g178
sI7
g188
sI8
g200
sI9
g214
sI10
g223
sI11
g232
sI12
g244
sI13
g253
sI14
g257
sI16
(dp266
sI17
(dp267
sI18
(dp268
sI19
(dp269
sI20
(dp270
sI21
(dp271
sI22
(dp272
sI23
(dp273
sI24
(dp274
sI25
(dp275
sI26
(dp276
sI27
(dp277
sI28
(dp278
sI29
(dp279
sI79
(dp280
ssI16
(dp281
I0
g107
sI1
g119
sI2
g131
sI3
g147
sI4
g156
sI5
g167
sI6
g179
sI7
g189
sI8
g201
sI9
g215
sI10
g224
sI11
g233
sI12
g245
sI14
g258
sI15
g266
sI17
(dp282
sI18
(dp283
sI19
(dp284
sI20
(dp285
sI21
(dp286
sI22
(dp287
sI23
(dp288
sI24
(dp289
sI25
(dp290
sI26
(dp291
sI27
(dp292
sI28
(dp293
sI29
(dp294
sI61
(dp295
ssI17
(dp296
I0
g108
sI2
g132
sI3
g148
sI4
g157
sI5
g168
sI6
g180
sI7
g190
sI8
g202
sI9
g216
sI10
g225
sI11
g234
sI12
g246
sI14
g259
sI15
g267
sI16
g282
sI18
(dp297
sI19
(dp298
sI20
(dp299
sI21
(dp300
sI22
(dp301
sI23
(dp302
sI24
(dp303
sI25
(dp304
sI26
(dp305
sI27
(dp306
sI28
(dp307
sI29
(dp308
sI69
(dp309
ssI18
(dp310
I0
g109
sI1
g120
sI2
g133
sI4
g158
sI5
g169
sI6
g181
sI7
g191
sI8
g203
sI10
g226
sI11
g235
sI12
g247
sI14
g260
sI15
g268
sI16
g283
sI17
g297
sI19
(dp311
sI20
(dp312
sI21
(dp313
sI22
(dp314
sI23
(dp315
sI24
(dp316
sI25
(dp317
sI26
(dp318
sI27
(dp319
sI28
(dp320
sI29
(dp321
sI81
(dp322
ssI19
(dp323
I0
g110
sI1
g121
sI2
g134
sI4
g159
sI5
g170
sI6
g182
sI7
g192
sI8
g204
sI10
g227
sI11
g236
sI12
g248
sI15
g269
sI16
g284
sI17
g298
sI18
g311
sI20
(dp324
sI21
(dp325
sI22
(dp326
sI23
(dp327
sI24
(dp328
sI25
(dp329
sI26
(dp330
sI27
(dp331
sI28
(dp332
sI29
(dp333
sI74
(dp334
ssI20
(dp335
I0
g111
sI2
g135
sI4
g160
sI6
g183
sI7
g193
sI8
g205
sI10
g228
sI11
g237
sI13
g252
sI14
g261
sI15
g270
sI16
g285
sI17
g299
sI18
g312
sI19
g324
sI21
(dp336
sI22
(dp337
sI23
(dp338
sI24
(dp339
sI25
(dp340
sI26
(dp341
sI27
(dp342
sI28
(dp343
sI29
(dp344
ssI21
(dp345
I0
g112
sI1
g122
sI2
g136
sI3
g150
sI5
g171
sI6
g184
sI9
g217
sI10
g229
sI14
g262
sI15
g271
sI16
g286
sI17
g300
sI18
g313
sI19
g325
sI20
g336
sI22
(dp346
sI23
(dp347
sI24
(dp348
sI25
(dp349
sI26
(dp350
sI27
(dp351
sI28
(dp352
sI29
(dp353
ssI22
(dp354
I0
g113
sI1
g123
sI2
g137
sI4
g161
sI6
g185
sI7
g194
sI8
g206
sI11
g238
sI15
g272
sI16
g287
sI17
g301
sI18
g314
sI19
g326
sI20
g337
sI21
g346
sI23
(dp355
sI24
(dp356
sI25
(dp357
sI26
(dp358
sI27
(dp359
sI28
(dp360
sI29
(dp361
sI35
(dp362
sI48
(dp363
sI89
(dp364
ssI23
(dp365
I66
(dp366
sI2
g138
sI3
g151
sI4
g162
sI7
g195
sI8
g207
sI10
g230
sI13
g251
sI15
g273
sI16
g288
sI17
g302
sI18
g315
sI19
g327
sI20
g338
sI21
g347
sI22
g355
sI25
(dp367
sI27
(dp368
sI29
(dp369
ssI24
(dp370
I1
g124
sI2
g139
sI4
g163
sI5
g172
sI7
g196
sI9
g218
sI11
g239
sI15
g274
sI16
g289
sI17
g303
sI18
g316
sI19
g328
sI20
g339
sI21
g348
sI22
g356
sI25
(dp371
sI26
(dp372
sI27
(dp373
sI28
(dp374
sI29
(dp375
sI56
(dp376
sI59
(dp377
sI78
(dp378
ssI25
(dp379
I1
g125
sI2
g140
sI4
g164
sI5
g173
sI8
g208
sI15
g275
sI16
g290
sI17
g304
sI18
g317
sI19
g329
sI20
g340
sI21
g349
sI22
g357
sI23
g367
sI24
g371
sI27
(dp380
sI53
(dp381
ssI26
(dp382
I0
g114
sI9
g219
sI11
g240
sI12
g249
sI14
g263
sI15
g276
sI16
g291
sI17
g305
sI18
g318
sI19
g330
sI20
g341
sI21
g350
sI22
g358
sI24
g372
sI57
(dp383
sI28
(dp384
ssI27
(dp385
I2
g141
sI3
g152
sI7
g197
sI11
g241
sI15
g277
sI16
g292
sI17
g306
sI18
g319
sI19
g331
sI20
g342
sI21
g351
sI22
g359
sI23
g368
sI24
g373
sI25
g380
sI28
(dp386
sI29
(dp387
ssI28
(dp388
I48
(dp389
sI2
g142
sI6
g186
sI8
g209
sI9
g220
sI15
g278
sI16
g293
sI17
g307
sI18
g320
sI19
g332
sI20
g343
sI21
g352
sI22
g360
sI24
g374
sI26
g384
sI27
g386
sI29
(dp390
ssI29
(dp391
I1
g126
sI2
g143
sI33
(dp392
sI81
(dp393
sI7
g198
sI15
g279
sI16
g294
sI17
g308
sI18
g321
sI19
g333
sI20
g344
sI21
g353
sI22
g361
sI23
g369
sI24
g375
sI27
g387
sI28
g390
sI62
(dp394
ssI30
(dp395
I8
g210
sI45
(dp396
sI46
(dp397
sI47
(dp398
sI48
(dp399
sI49
(dp400
sI50
(dp401
sI51
(dp402
sI52
(dp403
sI56
(dp404
sI84
(dp405
ssI31
(dp406
I45
(dp407
sI46
(dp408
sI48
(dp409
sI49
(dp410
sI51
(dp411
sI52
(dp412
sI54
(dp413
sI55
(dp414
sI59
(dp415
ssI32
(dp416
I6
g175
sI45
(dp417
sI46
(dp418
sI47
(dp419
sI48
(dp420
sI49
(dp421
sI50
(dp422
sI51
(dp423
sI52
(dp424
sI53
(dp425
sI54
(dp426
sI55
(dp427
sI57
(dp428
sI58
(dp429
sI59
(dp430
ssI33
(dp431
I4
g154
sI78
(dp432
sI45
(dp433
sI46
(dp434
sI47
(dp435
sI51
(dp436
sI53
(dp437
sI57
(dp438
sI29
g392
ssI34
(dp439
I45
(dp440
sI46
(dp441
sI47
(dp442
sI48
(dp443
sI49
(dp444
sI50
(dp445
sI52
(dp446
sI53
(dp447
sI54
(dp448
sI55
(dp449
ssI35
(dp450
I22
g362
sI81
(dp451
sI45
(dp452
sI46
(dp453
sI47
(dp454
sI48
(dp455
sI49
(dp456
sI51
(dp457
sI54
(dp458
sI55
(dp459
sI61
(dp460
ssI36
(dp461
I45
(dp462
sI46
(dp463
sI47
(dp464
sI48
(dp465
sI49
(dp466
sI50
(dp467
sI51
(dp468
sI52
(dp469
sI58
(dp470
ssI37
(dp471
I45
(dp472
sI46
(dp473
sI47
(dp474
sI48
(dp475
sI49
(dp476
sI50
(dp477
sI52
(dp478
sI53
(dp479
sI54
(dp480
sI89
(dp481
sI57
(dp482
sI59
(dp483
ssI38
(dp484
I45
(dp485
sI46
(dp486
sI47
(dp487
sI48
(dp488
sI49
(dp489
sI50
(dp490
sI52
(dp491
sI53
(dp492
sI55
(dp493
sI58
(dp494
ssI39
(dp495
I3
g145
sI45
(dp496
sI46
(dp497
sI47
(dp498
sI51
(dp499
sI54
(dp500
sI56
(dp501
sI58
(dp502
ssI40
(dp503
I82
(dp504
sI45
(dp505
sI46
(dp506
sI47
(dp507
sI48
(dp508
sI49
(dp509
sI50
(dp510
sI51
(dp511
sI53
(dp512
ssI41
(dp513
I45
(dp514
sI46
(dp515
sI47
(dp516
sI48
(dp517
sI49
(dp518
sI50
(dp519
sI52
(dp520
sI54
(dp521
sI56
(dp522
sI57
(dp523
ssI42
(dp524
I76
(dp525
sI45
(dp526
sI46
(dp527
sI47
(dp528
sI48
(dp529
sI49
(dp530
sI56
(dp531
ssI43
(dp532
I50
(dp533
sI53
(dp534
sI45
(dp535
ssI44
(dp536
I83
(dp537
sI45
(dp538
sI46
(dp539
sI47
(dp540
sI48
(dp541
sI88
(dp542
sI50
(dp543
sI51
(dp544
sI56
(dp545
ssI45
(dp546
I30
g396
sI31
g407
sI32
g417
sI33
g433
sI34
g440
sI35
g452
sI36
g462
sI37
g472
sI38
g485
sI39
g496
sI40
g505
sI41
g514
sI42
g526
sI43
g535
sI44
g538
sI46
(dp547
sI47
(dp548
sI48
(dp549
sI49
(dp550
sI50
(dp551
sI51
(dp552
sI52
(dp553
sI53
(dp554
sI54
(dp555
sI55
(dp556
sI56
(dp557
sI57
(dp558
sI58
(dp559
sI59
(dp560
sI75
(dp561
ssI46
(dp562
I0
g105
sI2
g129
sI9
g213
sI30
g397
sI31
g408
sI32
g418
sI33
g434
sI34
g441
sI35
g453
sI36
g463
sI37
g473
sI38
g486
sI39
g497
sI40
g506
sI41
g515
sI42
g527
sI44
g539
sI45
g547
sI47
(dp563
sI48
(dp564
sI49
(dp565
sI50
(dp566
sI51
(dp567
sI52
(dp568
sI53
(dp569
sI54
(dp570
sI55
(dp571
sI56
(dp572
sI57
(dp573
sI58
(dp574
sI59
(dp575
sI72
(dp576
ssI47
(dp577
I30
g398
sI32
g419
sI33
g435
sI34
g442
sI35
g454
sI36
g464
sI37
g474
sI38
g487
sI39
g498
sI40
g507
sI41
g516
sI42
g528
sI44
g540
sI45
g548
sI46
g563
sI48
(dp578
sI49
(dp579
sI50
(dp580
sI51
(dp581
sI52
(dp582
sI53
(dp583
sI54
(dp584
sI55
(dp585
sI56
(dp586
sI57
(dp587
sI58
(dp588
sI59
(dp589
ssI48
(dp590
I22
g363
sI28
g389
sI30
g399
sI31
g409
sI32
g420
sI34
g443
sI35
g455
sI36
g465
sI37
g475
sI38
g488
sI40
g508
sI41
g517
sI42
g529
sI44
g541
sI45
g549
sI46
g564
sI47
g578
sI49
(dp591
sI50
(dp592
sI51
(dp593
sI52
(dp594
sI53
(dp595
sI54
(dp596
sI55
(dp597
sI56
(dp598
sI57
(dp599
sI58
(dp600
sI59
(dp601
sI65
(dp602
ssI49
(dp603
I30
g400
sI31
g410
sI32
g421
sI34
g444
sI35
g456
sI36
g466
sI37
g476
sI38
g489
sI40
g509
sI41
g518
sI42
g530
sI45
g550
sI46
g565
sI47
g579
sI48
g591
sI50
(dp604
sI51
(dp605
sI52
(dp606
sI53
(dp607
sI54
(dp608
sI55
(dp609
sI56
(dp610
sI57
(dp611
sI58
(dp612
sI59
(dp613
sI60
(dp614
sI78
(dp615
ssI50
(dp616
I30
g401
sI32
g422
sI34
g445
sI36
g467
sI37
g477
sI38
g490
sI40
g510
sI41
g519
sI43
g533
sI44
g543
sI45
g551
sI46
g566
sI47
g580
sI48
g592
sI49
g604
sI51
(dp617
sI52
(dp618
sI53
(dp619
sI54
(dp620
sI55
(dp621
sI56
(dp622
sI57
(dp623
sI58
(dp624
sI59
(dp625
sI60
(dp626
ssI51
(dp627
I30
g402
sI31
g411
sI32
g423
sI33
g436
sI35
g457
sI36
g468
sI39
g499
sI40
g511
sI44
g544
sI45
g552
sI46
g567
sI47
g581
sI48
g593
sI49
g605
sI50
g617
sI52
(dp628
sI53
(dp629
sI54
(dp630
sI55
(dp631
sI56
(dp632
sI57
(dp633
sI58
(dp634
sI59
(dp635
ssI52
(dp636
I30
g403
sI31
g412
sI32
g424
sI34
g446
sI36
g469
sI37
g478
sI38
g491
sI41
g520
sI45
g553
sI46
g568
sI47
g582
sI48
g594
sI49
g606
sI50
g618
sI51
g628
sI53
(dp637
sI54
(dp638
sI55
(dp639
sI56
(dp640
sI57
(dp641
sI58
(dp642
sI59
(dp643
ssI53
(dp644
I32
g425
sI33
g437
sI34
g447
sI37
g479
sI38
g492
sI40
g512
sI43
g534
sI45
g554
sI46
g569
sI47
g583
sI48
g595
sI49
g607
sI50
g619
sI51
g629
sI52
g637
sI14
g264
sI55
(dp645
sI57
(dp646
sI25
g381
sI59
(dp647
sI70
(dp648
ssI54
(dp649
I32
g426
sI34
g448
sI35
g458
sI37
g480
sI39
g500
sI41
g521
sI45
g555
sI46
g570
sI47
g584
sI48
g596
sI49
g608
sI50
g620
sI51
g630
sI52
g638
sI55
(dp650
sI56
(dp651
sI57
(dp652
sI58
(dp653
sI59
(dp654
sI31
g413
ssI55
(dp655
I32
g427
sI34
g449
sI35
g459
sI38
g493
sI45
g556
sI46
g571
sI47
g585
sI48
g597
sI49
g609
sI50
g621
sI51
g631
sI52
g639
sI53
g645
sI54
g650
sI57
(dp656
sI31
g414
ssI56
(dp657
I39
g501
sI41
g522
sI42
g531
sI44
g545
sI45
g557
sI46
g572
sI47
g586
sI48
g598
sI49
g610
sI50
g622
sI51
g632
sI52
g640
sI54
g651
sI24
g376
sI84
(dp658
sI58
(dp659
sI30
g404
ssI57
(dp660
I32
g428
sI33
g438
sI37
g482
sI41
g523
sI74
(dp661
sI45
g558
sI46
g573
sI47
g587
sI48
g599
sI49
g611
sI50
g623
sI51
g633
sI52
g641
sI53
g646
sI54
g652
sI55
g656
sI58
(dp662
sI59
(dp663
sI26
g383
ssI58
(dp664
I32
g429
sI36
g470
sI38
g494
sI39
g502
sI74
(dp665
sI45
g559
sI46
g574
sI47
g588
sI48
g600
sI49
g612
sI50
g624
sI51
g634
sI52
g642
sI54
g653
sI56
g659
sI57
g662
sI59
(dp666
ssI59
(dp667
I32
g430
sI64
(dp668
sI37
g483
sI45
g560
sI46
g575
sI47
g589
sI48
g601
sI49
g613
sI50
g625
sI51
g635
sI52
g643
sI53
g647
sI54
g654
sI24
g377
sI57
g663
sI58
g666
sI31
g415
ssI60
(dp669
I50
g626
sI49
g614
sI75
(dp670
sI76
(dp671
sI77
(dp672
sI78
(dp673
sI79
(dp674
sI80
(dp675
sI81
(dp676
sI82
(dp677
sI86
(dp678
ssI61
(dp679
I35
g460
sI75
(dp680
sI76
(dp681
sI78
(dp682
sI79
(dp683
sI16
g295
sI81
(dp684
sI82
(dp685
sI84
(dp686
sI85
(dp687
sI89
(dp688
ssI62
(dp689
I75
(dp690
sI76
(dp691
sI77
(dp692
sI78
(dp693
sI79
(dp694
sI80
(dp695
sI81
(dp696
sI82
(dp697
sI83
(dp698
sI84
(dp699
sI85
(dp700
sI87
(dp701
sI88
(dp702
sI89
(dp703
sI29
g394
ssI63
(dp704
I75
(dp705
sI76
(dp706
sI77
(dp707
sI81
(dp708
sI83
(dp709
sI87
(dp710
ssI64
(dp711
I75
(dp712
sI76
(dp713
sI77
(dp714
sI78
(dp715
sI79
(dp716
sI80
(dp717
sI82
(dp718
sI83
(dp719
sI84
(dp720
sI85
(dp721
sI59
g668
ssI65
(dp722
I75
(dp723
sI76
(dp724
sI77
(dp725
sI78
(dp726
sI79
(dp727
sI48
g602
sI81
(dp728
sI84
(dp729
sI85
(dp730
ssI66
(dp731
I75
(dp732
sI76
(dp733
sI77
(dp734
sI78
(dp735
sI79
(dp736
sI80
(dp737
sI81
(dp738
sI82
(dp739
sI23
g366
sI88
(dp740
ssI67
(dp741
I75
(dp742
sI76
(dp743
sI77
(dp744
sI78
(dp745
sI79
(dp746
sI80
(dp747
sI82
(dp748
sI83
(dp749
sI84
(dp750
sI14
g255
sI87
(dp751
sI89
(dp752
ssI68
(dp753
I75
(dp754
sI76
(dp755
sI77
(dp756
sI78
(dp757
sI79
(dp758
sI80
(dp759
sI82
(dp760
sI83
(dp761
sI85
(dp762
sI88
(dp763
ssI69
(dp764
I17
g309
sI75
(dp765
sI76
(dp766
sI77
(dp767
sI81
(dp768
sI84
(dp769
sI86
(dp770
sI88
(dp771
ssI70
(dp772
I14
g256
sI75
(dp773
sI76
(dp774
sI77
(dp775
sI78
(dp776
sI79
(dp777
sI80
(dp778
sI81
(dp779
sI83
(dp780
sI53
g648
ssI71
(dp781
I12
g243
sI75
(dp782
sI76
(dp783
sI77
(dp784
sI78
(dp785
sI79
(dp786
sI80
(dp787
sI82
(dp788
sI84
(dp789
sI86
(dp790
sI87
(dp791
ssI72
(dp792
I2
g128
sI6
g177
sI75
(dp793
sI76
(dp794
sI77
(dp795
sI78
(dp796
sI79
(dp797
sI46
g576
sI86
(dp798
ssI73
(dp799
I80
(dp800
sI1
g117
sI83
(dp801
sI75
(dp802
ssI74
(dp803
I75
(dp804
sI76
(dp805
sI77
(dp806
sI78
(dp807
sI80
(dp808
sI81
(dp809
sI19
g334
sI86
(dp810
sI57
g661
sI58
g665
ssI75
(dp811
I45
g561
sI60
g670
sI61
g680
sI62
g690
sI63
g705
sI64
g712
sI65
g723
sI66
g732
sI67
g742
sI68
g754
sI69
g765
sI70
g773
sI71
g782
sI72
g793
sI73
g802
sI74
g804
sI76
(dp812
sI77
(dp813
sI78
(dp814
sI79
(dp815
sI80
(dp816
sI81
(dp817
sI82
(dp818
sI83
(dp819
sI84
(dp820
sI85
(dp821
sI86
(dp822
sI87
(dp823
sI88
(dp824
sI89
(dp825
ssI76
(dp826
I10
g222
sI42
g525
sI60
g671
sI61
g681
sI62
g691
sI63
g706
sI64
g713
sI65
g724
sI66
g733
sI67
g743
sI68
g755
sI69
g766
sI70
g774
sI71
g783
sI72
g794
sI74
g805
sI75
g812
sI77
(dp827
sI78
(dp828
sI79
(dp829
sI80
(dp830
sI81
(dp831
sI82
(dp832
sI83
(dp833
sI84
(dp834
sI85
(dp835
sI86
(dp836
sI87
(dp837
sI88
(dp838
sI89
(dp839
ssI77
(dp840
I60
g672
sI62
g692
sI63
g707
sI64
g714
sI65
g725
sI66
g734
sI67
g744
sI68
g756
sI69
g767
sI70
g775
sI71
g784
sI72
g795
sI74
g806
sI75
g813
sI76
g827
sI78
(dp841
sI79
(dp842
sI80
(dp843
sI81
(dp844
sI82
(dp845
sI83
(dp846
sI84
(dp847
sI85
(dp848
sI86
(dp849
sI87
(dp850
sI88
(dp851
sI89
(dp852
ssI78
(dp853
I24
g378
sI33
g432
sI49
g615
sI60
g673
sI61
g682
sI62
g693
sI64
g715
sI65
g726
sI66
g735
sI67
g745
sI68
g757
sI70
g776
sI71
g785
sI72
g796
sI74
g807
sI75
g814
sI76
g828
sI77
g841
sI79
(dp854
sI80
(dp855
sI81
(dp856
sI82
(dp857
sI83
(dp858
sI84
(dp859
sI85
(dp860
sI86
(dp861
sI87
(dp862
sI88
(dp863
sI89
(dp864
ssI79
(dp865
I15
g280
sI60
g674
sI61
g683
sI62
g694
sI64
g716
sI65
g727
sI66
g736
sI67
g746
sI68
g758
sI70
g777
sI71
g786
sI72
g797
sI75
g815
sI76
g829
sI77
g842
sI78
g854
sI80
(dp866
sI81
(dp867
sI82
(dp868
sI83
(dp869
sI84
(dp870
sI85
(dp871
sI86
(dp872
sI87
(dp873
sI88
(dp874
sI89
(dp875
ssI80
(dp876
I6
g176
sI9
g212
sI60
g675
sI62
g695
sI64
g717
sI66
g737
sI67
g747
sI68
g759
sI70
g778
sI71
g787
sI73
g800
sI74
g808
sI75
g816
sI76
g830
sI77
g843
sI78
g855
sI79
g866
sI81
(dp877
sI82
(dp878
sI83
(dp879
sI84
(dp880
sI85
(dp881
sI86
(dp882
sI87
(dp883
sI88
(dp884
sI89
(dp885
ssI81
(dp886
I18
g322
sI29
g393
sI35
g451
sI60
g676
sI61
g684
sI62
g696
sI63
g708
sI65
g728
sI66
g738
sI69
g768
sI70
g779
sI74
g809
sI75
g817
sI76
g831
sI77
g844
sI78
g856
sI79
g867
sI80
g877
sI82
(dp887
sI83
(dp888
sI84
(dp889
sI85
(dp890
sI86
(dp891
sI87
(dp892
sI88
(dp893
sI89
(dp894
ssI82
(dp895
I40
g504
sI60
g677
sI61
g685
sI62
g697
sI64
g718
sI66
g739
sI67
g748
sI68
g760
sI71
g788
sI75
g818
sI76
g832
sI77
g845
sI78
g857
sI79
g868
sI80
g878
sI81
g887
sI83
(dp896
sI84
(dp897
sI85
(dp898
sI86
(dp899
sI87
(dp900
sI88
(dp901
sI89
(dp902
ssI83
(dp903
I64
g719
sI67
g749
sI68
g761
sI70
g780
sI73
g801
sI75
g819
sI76
g833
sI77
g846
sI78
g858
sI79
g869
sI80
g879
sI81
g888
sI82
g896
sI3
g149
sI85
(dp904
sI87
(dp905
sI89
(dp906
sI44
g537
sI62
g698
sI63
g709
ssI84
(dp907
I30
g405
sI56
g658
sI61
g686
sI62
g699
sI64
g720
sI65
g729
sI67
g750
sI69
g769
sI71
g789
sI75
g820
sI76
g834
sI77
g847
sI78
g859
sI79
g870
sI80
g880
sI81
g889
sI82
g897
sI85
(dp908
sI86
(dp909
sI87
(dp910
sI88
(dp911
sI89
(dp912
ssI85
(dp913
I64
g721
sI65
g730
sI68
g762
sI0
g115
sI75
g821
sI76
g835
sI77
g848
sI78
g860
sI79
g871
sI80
g881
sI81
g890
sI82
g898
sI83
g904
sI84
g908
sI87
(dp914
sI61
g687
sI62
g700
ssI86
(dp915
I69
g770
sI71
g790
sI72
g798
sI74
g810
sI75
g822
sI76
g836
sI77
g849
sI78
g861
sI79
g872
sI80
g882
sI81
g891
sI82
g899
sI84
g909
sI88
(dp916
sI60
g678
ssI87
(dp917
I67
g751
sI71
g791
sI75
g823
sI76
g837
sI77
g850
sI78
g862
sI79
g873
sI80
g883
sI81
g892
sI82
g900
sI83
g905
sI84
g910
sI85
g914
sI88
(dp918
sI89
(dp919
sI62
g701
sI63
g710
ssI88
(dp920
I66
g740
sI68
g763
sI69
g771
sI44
g542
sI75
g824
sI76
g838
sI77
g851
sI78
g863
sI79
g874
sI80
g884
sI81
g893
sI82
g901
sI84
g911
sI86
g916
sI87
g918
sI89
(dp921
sI62
g702
ssI89
(dp922
I67
g752
sI37
g481
sI75
g825
sI76
g839
sI77
g852
sI78
g864
sI79
g875
sI80
g885
sI81
g894
sI82
g902
sI83
g906
sI84
g912
sI22
g364
sI87
g919
sI88
g921
sI61
g688
sI62
g703
sssS'adj'
p923
g103
sb.