ccopy_reg
_reconstructor
p0
(cnetworkx.classes.graph
Graph
p1
c__builtin__
object
p2
Ntp3
Rp4
(dp5
S'node'
p6
(dp7
I0
(dp8
sI1
(dp9
sI2
(dp10
sI3
(dp11
sI4
(dp12
sI5
(dp13
sI6
(dp14
sI7
(dp15
sI8
(dp16
sI9
(dp17
sI10
(dp18
sI11
(dp19
sI12
(dp20
sI13
(dp21
sI14
(dp22
sI15
(dp23
sI16
(dp24
sI17
(dp25
sI18
(dp26
sI19
(dp27
sI20
(dp28
sI21
(dp29
sI22
(dp30
sI23
(dp31
sI24
(dp32
sI25
(dp33
sI26
(dp34
sI27
(dp35
sI28
(dp36
sI29
(dp37
sI30
(dp38
sI31
(dp39
sI32
(dp40
sI33
(dp41
sI34
(dp42
sI35
(dp43
sI36
(dp44
sI37
(dp45
sI38
(dp46
sI39
(dp47
sI40
(dp48
sI41
(dp49
sI42
(dp50
sI43
(dp51
sI44
(dp52
ssS'graph'
p53
(dp54
S'name'
p55
S'(Powerlaw-Cluster Graph)_with_int_labels'
p56
ssS'edge'
p57
(dp58
I0
(dp59
I8
(dp60
sI9
(dp61
sI10
(dp62
sI11
(dp63
sI12
(dp64
sI13
(dp65
sI14
(dp66
ssI1
(dp67
I8
(dp68
sI9
(dp69
sI10
(dp70
sI11
(dp71
sI13
(dp72
sI24
(dp73
ssI2
(dp74
I8
(dp75
sI9
(dp76
sI12
(dp77
ssI3
(dp78
I8
(dp79
sI9
(dp80
sI12
(dp81
ssI4
(dp82
I8
(dp83
sI10
(dp84
sI11
(dp85
sI13
(dp86
sI14
(dp87
sI26
(dp88
sI30
(dp89
ssI5
(dp90
I8
(dp91
sI9
(dp92
sI10
(dp93
sI11
(dp94
sI12
(dp95
sI14
(dp96
sI42
(dp97
ssI6
(dp98
I8
(dp99
sI9
(dp100
sI10
(dp101
sI11
(dp102
sI12
(dp103
sI42
(dp104
ssI7
(dp105
I8
(dp106
sI9
(dp107
sI10
(dp108
sI40
(dp109
ssI8
(dp110
I0
g60
sI1
g68
sI2
g75
sI3
g79
sI4
g83
sI5
g91
sI6
g99
sI7
g106
sI9
(dp111
sI10
(dp112
sI11
(dp113
sI12
(dp114
sI13
(dp115
sI14
(dp116
sI35
(dp117
sI27
(dp118
sI29
(dp119
ssI9
(dp120
I0
g61
sI1
g69
sI2
g76
sI3
g80
sI5
g92
sI6
g100
sI7
g107
sI8
g111
sI10
(dp121
sI11
(dp122
sI12
(dp123
sI13
(dp124
sI14
(dp125
sI39
(dp126
ssI10
(dp127
I0
g62
sI1
g70
sI35
(dp128
sI4
g84
sI5
g93
sI6
g101
sI7
g108
sI8
g112
sI9
g121
sI11
(dp129
sI13
(dp130
sI14
(dp131
ssI11
(dp132
I0
g63
sI1
g71
sI4
g85
sI5
g94
sI6
g102
sI8
g113
sI9
g122
sI10
g129
sI43
(dp133
sI12
(dp134
sI13
(dp135
sI14
(dp136
ssI12
(dp137
I0
g64
sI2
g77
sI3
g81
sI5
g95
sI6
g103
sI8
g114
sI9
g123
sI11
g134
sI13
(dp138
ssI13
(dp139
I0
g65
sI1
g72
sI4
g86
sI8
g115
sI9
g124
sI10
g130
sI11
g135
sI12
g138
sI14
(dp140
sI27
(dp141
sI29
(dp142
ssI14
(dp143
I0
g66
sI4
g87
sI5
g96
sI8
g116
sI9
g125
sI10
g131
sI11
g136
sI13
g140
ssI15
(dp144
I23
(dp145
sI24
(dp146
sI25
(dp147
sI26
(dp148
sI27
(dp149
sI28
(dp150
sI29
(dp151
ssI16
(dp152
I24
(dp153
sI25
(dp154
sI26
(dp155
sI28
(dp156
sI23
(dp157
ssI17
(dp158
I24
(dp159
sI27
(dp160
sI23
(dp161
ssI18
(dp162
I24
(dp163
sI27
(dp164
sI23
(dp165
ssI19
(dp166
I23
(dp167
sI25
(dp168
sI26
(dp169
sI28
(dp170
sI29
(dp171
sI30
(dp172
ssI20
(dp173
I41
(dp174
sI23
(dp175
sI24
(dp176
sI25
(dp177
sI26
(dp178
sI27
(dp179
sI29
(dp180
ssI21
(dp181
I24
(dp182
sI25
(dp183
sI26
(dp184
sI27
(dp185
sI23
(dp186
ssI22
(dp187
I24
(dp188
sI25
(dp189
sI23
(dp190
ssI23
(dp191
I35
(dp192
sI37
(dp193
sI38
(dp194
sI15
g145
sI16
g157
sI17
g161
sI18
g165
sI19
g167
sI20
g175
sI21
g186
sI22
g190
sI24
(dp195
sI25
(dp196
sI26
(dp197
sI27
(dp198
sI28
(dp199
sI29
(dp200
ssI24
(dp201
I1
g73
sI15
g146
sI16
g153
sI17
g159
sI18
g163
sI20
g176
sI21
g182
sI22
g188
sI23
g195
sI25
(dp202
sI26
(dp203
sI27
(dp204
sI28
(dp205
sI29
(dp206
ssI25
(dp207
I15
g147
sI16
g154
sI19
g168
sI20
g177
sI21
g183
sI22
g189
sI23
g196
sI24
g202
sI26
(dp208
sI28
(dp209
sI29
(dp210
sI30
(dp211
ssI26
(dp212
I33
(dp213
sI4
g88
sI15
g148
sI16
g155
sI19
g169
sI20
g178
sI21
g184
sI23
g197
sI24
g203
sI25
g208
sI27
(dp214
sI28
(dp215
sI29
(dp216
ssI27
(dp217
I8
g118
sI13
g141
sI15
g149
sI17
g160
sI18
g164
sI20
g179
sI21
g185
sI23
g198
sI24
g204
sI26
g214
sI28
(dp218
ssI28
(dp219
I15
g150
sI16
g156
sI19
g170
sI23
g199
sI24
g205
sI25
g209
sI26
g215
sI27
g218
sI29
(dp220
ssI29
(dp221
I8
g119
sI13
g142
sI15
g151
sI19
g171
sI20
g180
sI23
g200
sI24
g206
sI25
g210
sI26
g216
sI28
g220
ssI30
(dp222
I4
g89
sI38
(dp223
sI39
(dp224
sI40
(dp225
sI41
(dp226
sI42
(dp227
sI43
(dp228
sI44
(dp229
sI19
g172
sI25
g211
ssI31
(dp230
I40
(dp231
sI41
(dp232
sI43
(dp233
sI38
(dp234
sI39
(dp235
ssI32
(dp236
I42
(dp237
sI38
(dp238
sI39
(dp239
ssI33
(dp240
I42
(dp241
sI26
g213
sI38
(dp242
sI39
(dp243
ssI34
(dp244
I40
(dp245
sI41
(dp246
sI43
(dp247
sI44
(dp248
sI38
(dp249
ssI35
(dp250
I38
(dp251
sI39
(dp252
sI40
(dp253
sI41
(dp254
sI42
(dp255
sI44
(dp256
sI8
g117
sI23
g192
sI10
g128
ssI36
(dp257
I40
(dp258
sI41
(dp259
sI42
(dp260
sI38
(dp261
sI39
(dp262
ssI37
(dp263
I40
(dp264
sI23
g193
sI38
(dp265
sI39
(dp266
ssI38
(dp267
I32
g238
sI33
g242
sI34
g249
sI35
g251
sI36
g261
sI37
g265
sI39
(dp268
sI40
(dp269
sI41
(dp270
sI42
(dp271
sI43
(dp272
sI44
(dp273
sI23
g194
sI30
g223
sI31
g234
ssI39
(dp274
I32
g239
sI33
g243
sI35
g252
sI36
g262
sI37
g266
sI38
g268
sI40
(dp275
sI41
(dp276
sI42
(dp277
sI43
(dp278
sI44
(dp279
sI9
g126
sI30
g224
sI31
g235
ssI40
(dp280
I34
g245
sI35
g253
sI36
g258
sI37
g264
sI38
g269
sI39
g275
sI41
(dp281
sI43
(dp282
sI44
(dp283
sI7
g109
sI30
g225
sI31
g231
ssI41
(dp284
I34
g246
sI35
g254
sI36
g259
sI38
g270
sI39
g276
sI40
g281
sI42
(dp285
sI43
(dp286
sI44
(dp287
sI20
g174
sI30
g226
sI31
g232
ssI42
(dp288
I32
g237
sI33
g241
sI35
g255
sI36
g260
sI6
g104
sI38
g271
sI39
g277
sI41
g285
sI43
(dp289
sI30
g227
sI5
g97
ssI43
(dp290
I34
g247
sI38
g272
sI39
g278
sI40
g282
sI41
g286
sI42
g289
sI11
g133
sI44
(dp291
sI30
g228
sI31
g233
ssI44
(dp292
I34
g248
sI35
g256
sI38
g273
sI39
g279
sI40
g283
sI41
g287
sI43
g291
sI30
g229
sssS'adj'
p293
g58
sb.