(lp0
(lp1
S'722'
p2
aS'706'
p3
aS'761'
p4
aS'764'
p5
aS'785'
p6
aS'790'
p7
aS'788'
p8
aS'778'
p9
aS'756'
p10
aS'794'
p11
aa(lp12
S'209'
p13
aS'208'
p14
aS'219'
p15
aS'212'
p16
aS'215'
p17
aS'210'
p18
aS'211'
p19
aS'288'
p20
aS'222'
p21
aS'220'
p22
aS'267'
p23
aS'204'
p24
aS'287'
p25
aS'227'
p26
aS'298'
p27
aS'261'
p28
aS'248'
p29
aS'207'
p30
aS'218'
p31
aS'228'
p32
aS'291'
p33
aS'290'
p34
aS'289'
p35
aS'264'
p36
aS'224'
p37
aS'242'
p38
aS'214'
p39
aS'217'
p40
aS'221'
p41
aS'223'
p42
aS'237'
p43
aS'201'
p44
aS'229'
p45
aS'206'
p46
aS'231'
p47
aS'257'
p48
aS'226'
p49
aS'259'
p50
aS'258'
p51
aS'273'
p52
aS'270'
p53
aS'254'
p54
aS'238'
p55
aS'275'
p56
aS'297'
p57
aS'244'
p58
aS'279'
p59
aS'260'
p60
aS'256'
p61
aS'280'
p62
aS'235'
p63
aS'253'
p64
aS'252'
p65
aS'245'
p66
aS'233'
p67
aS'277'
p68
aS'282'
p69
aS'281'
p70
aS'243'
p71
aS'247'
p72
aS'203'
p73
aS'250'
p74
aS'216'
p75
aS'246'
p76
aS'236'
p77
aS'202'
p78
aS'239'
p79
aS'249'
p80
aS'241'
p81
aS'200'
p82
aS'234'
p83
aS'213'
p84
aS'225'
p85
aS'230'
p86
aS'251'
p87
aS'283'
p88
aS'255'
p89
aS'293'
p90
aS'232'
p91
aS'266'
p92
aS'271'
p93
aS'205'
p94
aS'262'
p95
aS'299'
p96
aS'240'
p97
aS'265'
p98
aS'272'
p99
aS'278'
p100
aS'295'
p101
aS'284'
p102
aS'263'
p103
aS'285'
p104
aS'276'
p105
aS'269'
p106
aS'268'
p107
aS'296'
p108
aS'292'
p109
aS'294'
p110
aS'286'
p111
aS'274'
p112
aa(lp113
S'325'
p114
aS'305'
p115
aS'343'
p116
aS'334'
p117
aS'372'
p118
aS'329'
p119
aS'376'
p120
aa(lp121
S'118'
p122
aS'121'
p123
aS'122'
p124
aS'155'
p125
aS'114'
p126
aS'130'
p127
aS'119'
p128
aa(lp129
S'601'
p130
aS'611'
p131
aS'608'
p132
aS'609'
p133
aS'610'
p134
aS'614'
p135
aS'691'
p136
aS'690'
p137
aS'667'
p138
aS'607'
p139
aS'664'
p140
aa(lp141
S'323'
p142
aS'301'
p143
aS'311'
p144
aS'312'
p145
aS'300'
p146
aS'310'
p147
aa(lp148
S'430'
p149
aS'471'
p150
aS'410'
p151
aS'411'
p152
aS'408'
p153
aS'409'
p154
aS'404'
p155
aS'490'
p156
aa(lp157
S'714'
p158
aS'719'
p159
aS'709'
p160
aS'710'
p161
aS'711'
p162
aS'712'
p163
aS'718'
p164
aa(lp165
S'1'
p166
aS'9'
p167
aS'10'
p168
aS'11'
p169
aS'12'
p170
aS'95'
p171
aS'14'
p172
aa(lp173
S'500'
p174
aS'516'
p175
aS'524'
p176
aS'512'
p177
aS'503'
p178
aa(lp179
S'501'
p180
aS'576'
p181
aS'533'
p182
aS'527'
p183
aS'529'
p184
aS'578'
p185
aS'583'
p186
aa(lp187
S'360'
p188
aS'351'
p189
aS'326'
p190
aS'307'
p191
aS'336'
p192
aa(lp193
S'843'
p194
aS'816'
p195
aS'820'
p196
aS'834'
p197
aS'830'
p198
aa(lp199
S'872'
p200
aS'899'
p201
aS'837'
p202
aS'866'
p203
aS'850'
p204
aa(lp205
S'755'
p206
aS'727'
p207
aS'739'
p208
aS'752'
p209
aS'707'
p210
aa(lp211
S'835'
p212
aS'863'
p213
aS'811'
p214
aS'844'
p215
aS'802'
p216
aS'894'
p217
aS'873'
p218
aa(lp219
S'810'
p220
aS'809'
p221
aS'808'
p222
aS'800'
p223
aS'813'
p224
aS'853'
p225
aS'823'
p226
aa(lp227
S'875'
p228
aS'806'
p229
aS'858'
p230
aS'857'
p231
aS'855'
p232
aa(lp233
S'487'
p234
aS'434'
p235
aS'449'
p236
aS'435'
p237
aS'427'
p238
aS'476'
p239
aa(lp240
S'131'
p241
aS'102'
p242
aS'126'
p243
aS'129'
p244
aS'153'
p245
aa(lp246
S'100'
p247
aS'115'
p248
aS'145'
p249
aS'147'
p250
aS'113'
p251
aa(lp252
S'124'
p253
aS'177'
p254
aS'105'
p255
aS'151'
p256
aS'138'
p257
aS'152'
p258
aa(lp259
S'320'
p260
aS'324'
p261
aS'345'
p262
aS'314'
p263
aS'331'
p264
aa(lp265
S'900'
p266
aS'910'
p267
aS'911'
p268
aS'908'
p269
aS'913'
p270
aa(lp271
S'931'
p272
aS'940'
p273
aS'941'
p274
aS'972'
p275
aS'996'
p276
aa(lp277
S'15'
p278
aS'22'
p279
aS'24'
p280
aS'26'
p281
aa(lp282
S'116'
p283
aS'108'
p284
aS'110'
p285
aS'111'
p286
aa(lp287
S'413'
p288
aS'432'
p289
aS'412'
p290
aS'417'
p291
aa(lp292
S'540'
p293
aS'521'
p294
aS'589'
p295
aS'507'
p296
aa(lp297
S'697'
p298
aS'635'
p299
aS'665'
p300
aS'673'
p301
aa(lp302
S'515'
p303
aS'511'
p304
aS'514'
p305
aS'510'
p306
aa(lp307
S'549'
p308
aS'504'
p309
aS'554'
p310
aS'592'
p311
aa(lp312
S'812'
p313
aS'815'
p314
aS'818'
p315
aS'824'
p316
aa(lp317
S'107'
p318
aS'120'
p319
aS'139'
p320
aS'164'
p321
aa(lp322
S'132'
p323
aS'142'
p324
aS'143'
p325
aS'170'
p326
aa(lp327
S'135'
p328
aS'148'
p329
aS'133'
p330
aS'134'
p331
aa(lp332
S'526'
p333
aS'546'
p334
aS'548'
p335
aS'520'
p336
aa(lp337
S'797'
p338
aS'700'
p339
aS'717'
p340
aS'713'
p341
aS'754'
p342
aa(lp343
S'613'
p344
aS'615'
p345
aS'603'
p346
aS'612'
p347
aS'678'
p348
aS'699'
p349
aa(lp350
S'445'
p351
aS'403'
p352
aS'424'
p353
aS'443'
p354
aS'491'
p355
aa(lp356
S'633'
p357
aS'624'
p358
aS'634'
p359
aS'640'
p360
aa(lp361
S'626'
p362
aS'628'
p363
aS'630'
p364
aS'698'
p365
aa(lp366
S'433'
p367
aS'447'
p368
aS'454'
p369
aS'478'
p370
aa(lp371
S'375'
p372
aS'366'
p373
aS'392'
p374
aS'370'
p375
aa(lp376
S'695'
p377
aS'638'
p378
aS'644'
p379
aS'651'
p380
aa(lp381
S'917'
p382
aS'915'
p383
aS'916'
p384
aS'920'
p385
aa(lp386
S'833'
p387
aS'840'
p388
aS'825'
p389
aS'839'
p390
aS'859'
p391
aS'892'
p392
aS'889'
p393
aa(lp394
S'986'
p395
aS'961'
p396
aS'936'
p397
aS'946'
p398
aa(lp399
S'4'
p400
aS'16'
p401
aS'32'
p402
aa(lp403
S'5'
p404
aS'13'
p405
aS'33'
p406
aa(lp407
S'588'
p408
aS'565'
p409
aS'564'
p410
aa(lp411
S'34'
p412
aS'49'
p413
aS'41'
p414
aa(lp415
S'37'
p416
aS'45'
p417
aS'96'
p418
aa(lp419
S'81'
p420
aS'69'
p421
aS'98'
p422
aa(lp423
S'308'
p424
aS'309'
p425
aS'313'
p426
aa(lp427
S'419'
p428
aS'401'
p429
aS'414'
p430
aa(lp431
S'439'
p432
aS'431'
p433
aS'466'
p434
aa(lp435
S'318'
p436
aS'304'
p437
aS'316'
p438
aa(lp439
S'974'
p440
aS'934'
p441
aS'904'
p442
aa(lp443
S'801'
p444
aS'814'
p445
aS'827'
p446
aa(lp447
S'871'
p448
aS'898'
p449
aS'869'
p450
aa(lp451
S'109'
p452
aS'101'
p453
aS'112'
p454
aa(lp455
S'381'
p456
aS'347'
p457
aS'374'
p458
aa(lp459
S'416'
p460
aS'428'
p461
aS'402'
p462
aa(lp463
S'645'
p464
aS'606'
p465
aS'681'
p466
aa(lp467
S'552'
p468
aS'550'
p469
aS'571'
p470
aa(lp471
S'662'
p472
aS'641'
p473
aS'696'
p474
aa(lp475
S'106'
p476
aS'140'
p477
aS'144'
p478
aa(lp479
S'190'
p480
aS'198'
p481
aS'196'
p482
aa(lp483
S'508'
p484
aS'509'
p485
aS'519'
p486
aa(lp487
S'532'
p488
aS'534'
p489
aS'536'
p490
aa(lp491
S'322'
p492
aS'306'
p493
aS'341'
p494
aa(lp495
S'675'
p496
aS'649'
p497
aS'685'
p498
aa(lp499
S'456'
p500
aS'441'
p501
aS'437'
p502
aa(lp503
S'358'
p504
aS'302'
p505
aS'339'
p506
aa(lp507
S'616'
p508
aS'625'
p509
aS'632'
p510
aa(lp511
S'438'
p512
aS'405'
p513
aS'477'
p514
aa(lp515
S'619'
p516
aS'600'
p517
aS'636'
p518
aa(lp519
S'620'
p520
aS'605'
p521
aS'676'
p522
aa(lp523
S'639'
p524
aS'661'
p525
aS'631'
p526
aa(lp527
S'104'
p528
aS'165'
p529
aS'186'
p530
aa(lp531
S'770'
p532
aS'795'
p533
aS'701'
p534
aa(lp535
S'968'
p536
aS'970'
p537
aS'977'
p538
aa(lp539
S'337'
p540
aS'386'
p541
aS'390'
p542
aa(lp543
S'506'
p544
aS'531'
p545
aS'530'
p546
aa(lp547
S'703'
p548
aS'715'
p549
aS'737'
p550
aa(lp551
S'705'
p552
aS'726'
p553
aS'704'
p554
aa(lp555
S'716'
p556
aS'787'
p557
aS'730'
p558
aa(lp559
S'924'
p560
aS'919'
p561
aS'922'
p562
aa(lp563
S'832'
p564
aS'876'
p565
aS'867'
p566
aa(lp567
S'804'
p568
aS'807'
p569
aS'838'
p570
aS'854'
p571
aa(lp572
S'766'
p573
aS'740'
p574
aS'771'
p575
aa(lp576
S'914'
p577
aS'928'
p578
aS'957'
p579
aa(lp580
S'188'
p581
aS'160'
p582
aS'194'
p583
aa(lp584
S'465'
p585
aS'479'
p586
aS'467'
p587
aa(lp588
S'932'
p589
aS'989'
p590
aS'975'
p591
aa(lp592
S'933'
p593
aS'906'
p594
aS'960'
p595
aa(lp596
S'8'
p597
aS'18'
p598
aa(lp599
S'25'
p600
aS'28'
p601
aa(lp602
S'36'
p603
aS'57'
p604
aa(lp605
S'54'
p606
aS'85'
p607
aa(lp608
S'65'
p609
aS'68'
p610
aa(lp611
S'0'
p612
aS'19'
p613
aa(lp614
S'3'
p615
aS'20'
p616
aa(lp617
S'43'
p618
aS'50'
p619
aa(lp620
S'66'
p621
aS'84'
p622
aa(lp623
S'64'
p624
aS'90'
p625
aa(lp626
S'70'
p627
aS'46'
p628
aa(lp629
S'103'
p630
aS'117'
p631
aa(lp632
S'535'
p633
aS'572'
p634
aa(lp635
S'71'
p636
aS'89'
p637
aa(lp638
S'569'
p639
aS'580'
p640
aa(lp641
S'964'
p642
aS'921'
p643
aa(lp644
S'344'
p645
aS'353'
p646
aa(lp647
S'319'
p648
aS'328'
p649
aa(lp650
S'602'
p651
aS'618'
p652
aa(lp653
S'762'
p654
aS'763'
p655
aa(lp656
S'420'
p657
aS'406'
p658
aa(lp659
S'407'
p660
aS'425'
p661
aa(lp662
S'821'
p663
aS'847'
p664
aa(lp665
S'492'
p666
aS'446'
p667
aa(lp668
S'499'
p669
aS'400'
p670
aa(lp671
S'748'
p672
aS'733'
p673
aa(lp674
S'878'
p675
aS'882'
p676
aa(lp677
S'442'
p678
aS'462'
p679
aa(lp680
S'769'
p681
aS'767'
p682
aa(lp683
S'333'
p684
aS'332'
p685
aa(lp686
S'805'
p687
aS'896'
p688
aa(lp689
S'927'
p690
aS'905'
p691
aa(lp692
S'136'
p693
aS'171'
p694
aa(lp695
S'159'
p696
aS'169'
p697
aa(lp698
S'513'
p699
aS'517'
p700
aa(lp701
S'539'
p702
aS'547'
p703
aa(lp704
S'555'
p705
aS'561'
p706
aa(lp707
S'573'
p708
aS'590'
p709
aa(lp710
S'544'
p711
aS'567'
p712
aa(lp713
S'538'
p714
aS'575'
p715
aa(lp716
S'796'
p717
aS'765'
p718
aa(lp719
S'724'
p720
aS'723'
p721
aa(lp722
S'944'
p723
aS'988'
p724
aa(lp725
S'758'
p726
aS'768'
p727
aa(lp728
S'746'
p729
aS'753'
p730
aa(lp731
S'440'
p732
aS'459'
p733
aa(lp734
S'622'
p735
aS'637'
p736
aa(lp737
S'623'
p738
aS'682'
p739
aa(lp740
S'660'
p741
aS'670'
p742
aa(lp743
S'671'
p744
aS'692'
p745
aa(lp746
S'444'
p747
aS'452'
p748
aa(lp749
S'494'
p750
aS'468'
p751
aa(lp752
S'482'
p753
aS'486'
p754
aa(lp755
S'999'
p756
aS'971'
p757
aa(lp758
S'560'
p759
aS'502'
p760
aa(lp761
S'648'
p762
aS'677'
p763
aa(lp764
S'448'
p765
aS'483'
p766
aa(lp767
S'496'
p768
aS'497'
p769
aa(lp770
S'901'
p771
aS'909'
p772
aa(lp773
S'935'
p774
aS'962'
p775
aa(lp776
S'303'
p777
aS'356'
p778
aa(lp779
S'321'
p780
aS'327'
p781
aa(lp782
S'335'
p783
aS'354'
p784
aa(lp785
S'346'
p786
aS'388'
p787
aa(lp788
S'369'
p789
aS'383'
p790
aa(lp791
S'393'
p792
aS'394'
p793
aa(lp794
S'786'
p795
aS'760'
p796
aa(lp797
S'591'
p798
aS'559'
p799
aa(lp800
S'451'
p801
aS'463'
p802
aa(lp803
S'537'
p804
aS'595'
p805
aa(lp806
S'621'
p807
aS'680'
p808
aa(lp809
S'657'
p810
aS'689'
p811
aa(lp812
S'687'
p813
aS'646'
p814
aa(lp815
S'868'
p816
aS'849'
p817
aa(lp818
S'887'
p819
aS'856'
p820
aa(lp821
S'836'
p822
aS'890'
p823
aa(lp824
S'845'
p825
aS'852'
p826
aa(lp827
S'720'
p828
aS'738'
p829
aa(lp830
S'728'
p831
aS'734'
p832
aa(lp833
S'732'
p834
aS'777'
p835
aa(lp836
S'674'
p837
aS'668'
p838
aa(lp839
S'817'
p840
aS'819'
p841
aa(lp842
S'883'
p843
aS'842'
p844
aa(lp845
S'942'
p846
aS'954'
p847
aa(lp848
S'173'
p849
aS'192'
p850
aa(lp851
S'870'
p852
aS'865'
p853
aa(lp854
S'743'
p855
aS'781'
p856
aa(lp857
S'125'
p858
aS'128'
p859
aa(lp860
S'146'
p861
aS'181'
p862
aa(lp863
S'161'
p864
aS'175'
p865
aa(lp866
S'782'
p867
aS'780'
p868
aa(lp869
S'193'
p870
aS'184'
p871
aa(lp872
S'757'
p873
aS'702'
p874
aa(lp875
S'902'
p876
aS'939'
p877
aa(lp878
S'923'
p879
aS'984'
p880
aa(lp881
S'965'
p882
aS'982'
p883
aa(lp884
S'149'
p885
aS'162'
p886
aa(lp887
S'157'
p888
aS'180'
p889
aa(lp890
S'594'
p891
aS'598'
p892
aa(lp893
S'396'
p894
aS'359'
p895
aa(lp896
S'937'
p897
aS'976'
p898
aa(lp899
S'955'
p900
aS'963'
p901
aa(lp902
S'950'
p903
aS'907'
p904
aa(lp905
S'993'
p906
aS'998'
p907
aa(lp908
S'17'
p909
aa(lp910
S'21'
p911
aa(lp912
S'27'
p913
aa(lp914
S'40'
p915
aa(lp916
S'42'
p917
aa(lp918
S'48'
p919
aa(lp920
S'59'
p921
aa(lp922
S'74'
p923
aa(lp924
S'79'
p925
aa(lp926
S'86'
p927
aa(lp928
S'87'
p929
aa(lp930
S'2'
p931
aa(lp932
S'6'
p933
aa(lp934
S'7'
p935
aa(lp936
S'23'
p937
aa(lp938
S'29'
p939
aa(lp940
S'47'
p941
aa(lp942
S'51'
p943
aa(lp944
S'53'
p945
aa(lp946
S'58'
p947
aa(lp948
S'63'
p949
aa(lp950
S'73'
p951
aa(lp952
S'75'
p953
aa(lp954
S'93'
p955
aa(lp956
S'31'
p957
aa(lp958
S'35'
p959
aa(lp960
S'39'
p961
aa(lp962
S'60'
p963
aa(lp964
S'76'
p965
aa(lp966
S'30'
p967
aa(lp968
S'67'
p969
aa(lp970
S'72'
p971
aa(lp972
S'82'
p973
aa(lp974
S'92'
p975
aa(lp976
S'38'
p977
aa(lp978
S'44'
p979
aa(lp980
S'91'
p981
aa(lp982
S'97'
p983
aa(lp984
S'61'
p985
aa(lp986
S'62'
p987
aa(lp988
S'83'
p989
aa(lp990
S'470'
p991
aa(lp992
S'579'
p993
aa(lp994
S'78'
p995
aa(lp996
S'94'
p997
aa(lp998
S'199'
p999
aa(lp1000
S'947'
p1001
aa(lp1002
S'77'
p1003
aa(lp1004
S'88'
p1005
aa(lp1006
S'52'
p1007
aa(lp1008
S'80'
p1009
aa(lp1010
S'56'
p1011
aa(lp1012
S'831'
p1013
aa(lp1014
S'841'
p1015
aa(lp1016
S'851'
p1017
aa(lp1018
S'377'
p1019
aa(lp1020
S'779'
p1021
aa(lp1022
S'55'
p1023
aa(lp1024
S'99'
p1025
aa(lp1026
S'885'
p1027
aa(lp1028
S'371'
p1029
aa(lp1030
S'893'
p1031
aa(lp1032
S'799'
p1033
aa(lp1034
S'587'
p1035
aa(lp1036
S'378'
p1037
aa(lp1038
S'570'
p1039
aa(lp1040
S'586'
p1041
aa(lp1042
S'862'
p1043
aa(lp1044
S'943'
p1045
aa(lp1046
S'380'
p1047
aa(lp1048
S'391'
p1049
aa(lp1050
S'653'
p1051
aa(lp1052
S'826'
p1053
aa(lp1054
S'518'
p1055
aa(lp1056
S'523'
p1057
aa(lp1058
S'545'
p1059
aa(lp1060
S'558'
p1061
aa(lp1062
S'584'
p1063
aa(lp1064
S'585'
p1065
aa(lp1066
S'525'
p1067
aa(lp1068
S'553'
p1069
aa(lp1070
S'315'
p1071
aa(lp1072
S'829'
p1073
aa(lp1074
S'357'
p1075
aa(lp1076
S'822'
p1077
aa(lp1078
S'693'
p1079
aa(lp1080
S'725'
p1081
aa(lp1082
S'877'
p1083
aa(lp1084
S'731'
p1085
aa(lp1086
S'672'
p1087
aa(lp1088
S'429'
p1089
aa(lp1090
S'480'
p1091
aa(lp1092
S'150'
p1093
aa(lp1094
S'156'
p1095
aa(lp1096
S'158'
p1097
aa(lp1098
S'163'
p1099
aa(lp1100
S'183'
p1101
aa(lp1102
S'191'
p1103
aa(lp1104
S'195'
p1105
aa(lp1106
S'398'
p1107
aa(lp1108
S'627'
p1109
aa(lp1110
S'642'
p1111
aa(lp1112
S'643'
p1113
aa(lp1114
S'469'
p1115
aa(lp1116
S'604'
p1117
aa(lp1118
S'617'
p1119
aa(lp1120
S'656'
p1121
aa(lp1122
S'666'
p1123
aa(lp1124
S'669'
p1125
aa(lp1126
S'688'
p1127
aa(lp1128
S'455'
p1129
aa(lp1130
S'317'
p1131
aa(lp1132
S'330'
p1133
aa(lp1134
S'349'
p1135
aa(lp1136
S'352'
p1137
aa(lp1138
S'421'
p1139
aa(lp1140
S'686'
p1141
aa(lp1142
S'426'
p1143
aa(lp1144
S'436'
p1145
aa(lp1146
S'473'
p1147
aa(lp1148
S'542'
p1149
aa(lp1150
S'543'
p1151
aa(lp1152
S'557'
p1153
aa(lp1154
S'577'
p1155
aa(lp1156
S'596'
p1157
aa(lp1158
S'541'
p1159
aa(lp1160
S'599'
p1161
aa(lp1162
S'679'
p1163
aa(lp1164
S'415'
p1165
aa(lp1166
S'423'
p1167
aa(lp1168
S'495'
p1169
aa(lp1170
S'137'
p1171
aa(lp1172
S'167'
p1173
aa(lp1174
S'659'
p1175
aa(lp1176
S'979'
p1177
aa(lp1178
S'980'
p1179
aa(lp1180
S'338'
p1181
aa(lp1182
S'342'
p1183
aa(lp1184
S'348'
p1185
aa(lp1186
S'350'
p1187
aa(lp1188
S'362'
p1189
aa(lp1190
S'363'
p1191
aa(lp1192
S'367'
p1193
aa(lp1194
S'373'
p1195
aa(lp1196
S'384'
p1197
aa(lp1198
S'505'
p1199
aa(lp1200
S'581'
p1201
aa(lp1202
S'708'
p1203
aa(lp1204
S'742'
p1205
aa(lp1206
S'450'
p1207
aa(lp1208
S'485'
p1209
aa(lp1210
S'925'
p1211
aa(lp1212
S'930'
p1213
aa(lp1214
S'978'
p1215
aa(lp1216
S'629'
p1217
aa(lp1218
S'650'
p1219
aa(lp1220
S'652'
p1221
aa(lp1222
S'846'
p1223
aa(lp1224
S'860'
p1225
aa(lp1226
S'888'
p1227
aa(lp1228
S'457'
p1229
aa(lp1230
S'458'
p1231
aa(lp1232
S'861'
p1233
aa(lp1234
S'881'
p1235
aa(lp1236
S'864'
p1237
aa(lp1238
S'879'
p1239
aa(lp1240
S'355'
p1241
aa(lp1242
S'397'
p1243
aa(lp1244
S'399'
p1245
aa(lp1246
S'340'
p1247
aa(lp1248
S'368'
p1249
aa(lp1250
S'385'
p1251
aa(lp1252
S'389'
p1253
aa(lp1254
S'750'
p1255
aa(lp1256
S'176'
p1257
aa(lp1258
S'775'
p1259
aa(lp1260
S'684'
p1261
aa(lp1262
S'694'
p1263
aa(lp1264
S'453'
p1265
aa(lp1266
S'721'
p1267
aa(lp1268
S'956'
p1269
aa(lp1270
S'828'
p1271
aa(lp1272
S'884'
p1273
aa(lp1274
S'912'
p1275
aa(lp1276
S'991'
p1277
aa(lp1278
S'994'
p1279
aa(lp1280
S'568'
p1281
aa(lp1282
S'461'
p1283
aa(lp1284
S'422'
p1285
aa(lp1286
S'848'
p1287
aa(lp1288
S'874'
p1289
aa(lp1290
S'803'
p1291
aa(lp1292
S'880'
p1293
aa(lp1294
S'897'
p1295
aa(lp1296
S'729'
p1297
aa(lp1298
S'736'
p1299
aa(lp1300
S'776'
p1301
aa(lp1302
S'647'
p1303
aa(lp1304
S'498'
p1305
aa(lp1306
S'123'
p1307
aa(lp1308
S'127'
p1309
aa(lp1310
S'141'
p1311
aa(lp1312
S'154'
p1313
aa(lp1314
S'172'
p1315
aa(lp1316
S'178'
p1317
aa(lp1318
S'189'
p1319
aa(lp1320
S'197'
p1321
aa(lp1322
S'484'
p1323
aa(lp1324
S'418'
p1325
aa(lp1326
S'493'
p1327
aa(lp1328
S'474'
p1329
aa(lp1330
S'735'
p1331
aa(lp1332
S'741'
p1333
aa(lp1334
S'749'
p1335
aa(lp1336
S'658'
p1337
aa(lp1338
S'472'
p1339
aa(lp1340
S'475'
p1341
aa(lp1342
S'488'
p1343
aa(lp1344
S'464'
p1345
aa(lp1346
S'489'
p1347
aa(lp1348
S'747'
p1349
aa(lp1350
S'948'
p1351
aa(lp1352
S'528'
p1353
aa(lp1354
S'574'
p1355
aa(lp1356
S'563'
p1357
aa(lp1358
S'566'
p1359
aa(lp1360
S'772'
p1361
aa(lp1362
S'773'
p1363
aa(lp1364
S'361'
p1365
aa(lp1366
S'364'
p1367
aa(lp1368
S'379'
p1369
aa(lp1370
S'522'
p1371
aa(lp1372
S'597'
p1373
aa(lp1374
S'929'
p1375
aa(lp1376
S'992'
p1377
aa(lp1378
S'792'
p1379
aa(lp1380
S'886'
p1381
aa(lp1382
S'891'
p1383
aa(lp1384
S'166'
p1385
aa(lp1386
S'168'
p1387
aa(lp1388
S'179'
p1389
aa(lp1390
S'174'
p1391
aa(lp1392
S'187'
p1393
aa(lp1394
S'185'
p1395
aa(lp1396
S'382'
p1397
aa(lp1398
S'562'
p1399
aa(lp1400
S'551'
p1401
aa(lp1402
S'556'
p1403
aa(lp1404
S'981'
p1405
aa(lp1406
S'582'
p1407
aa(lp1408
S'593'
p1409
aa(lp1410
S'460'
p1411
aa(lp1412
S'365'
p1413
aa(lp1414
S'774'
p1415
aa(lp1416
S'783'
p1417
aa(lp1418
S'949'
p1419
aa(lp1420
S'745'
p1421
aa(lp1422
S'791'
p1423
aa(lp1424
S'683'
p1425
aa(lp1426
S'759'
p1427
aa(lp1428
S'182'
p1429
aa(lp1430
S'655'
p1431
aa(lp1432
S'663'
p1433
aa(lp1434
S'654'
p1435
aa(lp1436
S'387'
p1437
aa(lp1438
S'481'
p1439
aa(lp1440
S'983'
p1441
aa(lp1442
S'903'
p1443
aa(lp1444
S'958'
p1445
aa(lp1446
S'969'
p1447
aa(lp1448
S'952'
p1449
aa(lp1450
S'918'
p1451
aa(lp1452
S'938'
p1453
aa(lp1454
S'959'
p1455
aa(lp1456
S'966'
p1457
aa(lp1458
S'985'
p1459
aa(lp1460
S'987'
p1461
aa(lp1462
S'995'
p1463
aa(lp1464
S'926'
p1465
aa(lp1466
S'967'
p1467
aa(lp1468
S'973'
p1469
aa(lp1470
S'945'
p1471
aa(lp1472
S'953'
p1473
aa(lp1474
S'997'
p1475
aa(lp1476
S'990'
p1477
aa(lp1478
S'395'
p1479
aa(lp1480
S'895'
p1481
aa(lp1482
S'751'
p1483
aa(lp1484
S'784'
p1485
aa(lp1486
S'789'
p1487
aa(lp1488
S'798'
p1489
aa(lp1490
S'793'
p1491
aa(lp1492
S'744'
p1493
aa(lp1494
S'951'
p1495
aa.