ccopy_reg
_reconstructor
p0
(cnetworkx.classes.graph
Graph
p1
c__builtin__
object
p2
Ntp3
Rp4
(dp5
S'node'
p6
(dp7
I0
(dp8
sI1
(dp9
sI2
(dp10
sI3
(dp11
sI4
(dp12
sI5
(dp13
sI6
(dp14
sI7
(dp15
sI8
(dp16
sI9
(dp17
sI10
(dp18
sI11
(dp19
sI12
(dp20
sI13
(dp21
sI14
(dp22
sI15
(dp23
sI16
(dp24
sI17
(dp25
sI18
(dp26
sI19
(dp27
sI20
(dp28
sI21
(dp29
sI22
(dp30
sI23
(dp31
sI24
(dp32
sI25
(dp33
sI26
(dp34
sI27
(dp35
sI28
(dp36
sI29
(dp37
ssS'graph'
p38
(dp39
S'name'
p40
S'(Powerlaw-Cluster Graph)_with_int_labels'
p41
ssS'edge'
p42
(dp43
I0
(dp44
I8
(dp45
sI9
(dp46
sI20
(dp47
sI6
(dp48
sI7
(dp49
ssI1
(dp50
I8
(dp51
sI9
(dp52
sI6
(dp53
sI7
(dp54
ssI2
(dp55
I21
(dp56
sI6
(dp57
sI7
(dp58
ssI3
(dp59
I25
(dp60
sI23
(dp61
sI6
(dp62
sI7
(dp63
ssI4
(dp64
I8
(dp65
sI9
(dp66
sI10
(dp67
sI18
(dp68
sI6
(dp69
ssI5
(dp70
I8
(dp71
sI6
(dp72
sI7
(dp73
ssI6
(dp74
I0
g48
sI1
g53
sI2
g57
sI3
g62
sI4
g69
sI5
g72
sI7
(dp75
sI8
(dp76
sI9
(dp77
ssI7
(dp78
I0
g49
sI1
g54
sI2
g58
sI3
g63
sI5
g73
sI6
g75
sI8
(dp79
sI9
(dp80
ssI8
(dp81
I0
g45
sI1
g51
sI4
g65
sI5
g71
sI6
g76
sI7
g79
sI9
(dp82
ssI9
(dp83
I0
g46
sI1
g52
sI4
g66
sI6
g77
sI7
g80
sI8
g82
sI17
(dp84
ssI10
(dp85
I16
(dp86
sI17
(dp87
sI18
(dp88
sI19
(dp89
sI4
g67
ssI11
(dp90
I16
(dp91
sI17
(dp92
sI18
(dp93
sI19
(dp94
sI28
(dp95
ssI12
(dp96
I16
(dp97
sI17
(dp98
ssI13
(dp99
I16
(dp100
sI17
(dp101
ssI14
(dp102
I16
(dp103
sI18
(dp104
sI19
(dp105
ssI15
(dp106
I16
(dp107
sI17
(dp108
sI18
(dp109
sI20
(dp110
sI25
(dp111
ssI16
(dp112
I10
g86
sI11
g91
sI12
g97
sI13
g100
sI14
g103
sI15
g107
sI17
(dp113
sI18
(dp114
sI19
(dp115
ssI17
(dp116
I9
g84
sI10
g87
sI11
g92
sI12
g98
sI13
g101
sI15
g108
sI16
g113
sI18
(dp117
sI19
(dp118
ssI18
(dp119
I4
g68
sI10
g88
sI11
g93
sI14
g104
sI15
g109
sI16
g114
sI17
g117
sI19
(dp120
ssI19
(dp121
I10
g89
sI11
g94
sI14
g105
sI16
g115
sI17
g118
sI18
g120
ssI20
(dp122
I0
g47
sI15
g110
sI26
(dp123
sI27
(dp124
sI28
(dp125
sI29
(dp126
ssI21
(dp127
I2
g56
sI26
(dp128
sI27
(dp129
sI28
(dp130
sI29
(dp131
ssI22
(dp132
I26
(dp133
sI27
(dp134
ssI23
(dp135
I3
g61
sI26
(dp136
sI27
(dp137
ssI24
(dp138
I26
(dp139
sI28
(dp140
sI29
(dp141
ssI25
(dp142
I3
g60
sI26
(dp143
sI27
(dp144
sI28
(dp145
sI15
g111
ssI26
(dp146
I20
g123
sI21
g128
sI22
g133
sI23
g136
sI24
g139
sI25
g143
sI27
(dp147
sI28
(dp148
sI29
(dp149
ssI27
(dp150
I20
g124
sI21
g129
sI22
g134
sI23
g137
sI25
g144
sI26
g147
sI28
(dp151
sI29
(dp152
ssI28
(dp153
I11
g95
sI20
g125
sI21
g130
sI24
g140
sI25
g145
sI26
g148
sI27
g151
sI29
(dp154
ssI29
(dp155
I20
g126
sI21
g131
sI24
g141
sI26
g149
sI27
g152
sI28
g154
sssS'adj'
p156
g43
sb.