ccopy_reg
_reconstructor
p0
(cnetworkx.classes.graph
Graph
p1
c__builtin__
object
p2
Ntp3
Rp4
(dp5
S'node'
p6
(dp7
I0
(dp8
sI1
(dp9
sI2
(dp10
sI3
(dp11
sI4
(dp12
sI5
(dp13
sI6
(dp14
sI7
(dp15
sI8
(dp16
sI9
(dp17
sI10
(dp18
sI11
(dp19
sI12
(dp20
sI13
(dp21
sI14
(dp22
sI15
(dp23
sI16
(dp24
sI17
(dp25
sI18
(dp26
sI19
(dp27
sI20
(dp28
sI21
(dp29
sI22
(dp30
sI23
(dp31
sI24
(dp32
sI25
(dp33
sI26
(dp34
sI27
(dp35
sI28
(dp36
sI29
(dp37
sI30
(dp38
sI31
(dp39
sI32
(dp40
sI33
(dp41
sI34
(dp42
sI35
(dp43
sI36
(dp44
sI37
(dp45
sI38
(dp46
sI39
(dp47
sI40
(dp48
sI41
(dp49
sI42
(dp50
sI43
(dp51
sI44
(dp52
sI45
(dp53
sI46
(dp54
sI47
(dp55
sI48
(dp56
sI49
(dp57
sI50
(dp58
sI51
(dp59
sI52
(dp60
sI53
(dp61
sI54
(dp62
sI55
(dp63
sI56
(dp64
sI57
(dp65
sI58
(dp66
sI59
(dp67
sI60
(dp68
sI61
(dp69
sI62
(dp70
sI63
(dp71
sI64
(dp72
sI65
(dp73
sI66
(dp74
sI67
(dp75
sI68
(dp76
sI69
(dp77
sI70
(dp78
sI71
(dp79
sI72
(dp80
sI73
(dp81
sI74
(dp82
sI75
(dp83
sI76
(dp84
sI77
(dp85
sI78
(dp86
sI79
(dp87
sI80
(dp88
sI81
(dp89
sI82
(dp90
sI83
(dp91
sI84
(dp92
sI85
(dp93
sI86
(dp94
sI87
(dp95
sI88
(dp96
sI89
(dp97
sI90
(dp98
sI91
(dp99
sI92
(dp100
sI93
(dp101
sI94
(dp102
sI95
(dp103
sI96
(dp104
sI97
(dp105
sI98
(dp106
sI99
(dp107
sI100
(dp108
sI101
(dp109
sI102
(dp110
sI103
(dp111
sI104
(dp112
sI105
(dp113
sI106
(dp114
sI107
(dp115
sI108
(dp116
sI109
(dp117
sI110
(dp118
sI111
(dp119
sI112
(dp120
sI113
(dp121
sI114
(dp122
sI115
(dp123
sI116
(dp124
sI117
(dp125
sI118
(dp126
sI119
(dp127
sI120
(dp128
sI121
(dp129
sI122
(dp130
sI123
(dp131
sI124
(dp132
sI125
(dp133
sI126
(dp134
sI127
(dp135
sI128
(dp136
sI129
(dp137
sI130
(dp138
sI131
(dp139
sI132
(dp140
sI133
(dp141
sI134
(dp142
sI135
(dp143
sI136
(dp144
sI137
(dp145
sI138
(dp146
sI139
(dp147
sI140
(dp148
sI141
(dp149
sI142
(dp150
sI143
(dp151
sI144
(dp152
sI145
(dp153
sI146
(dp154
sI147
(dp155
sI148
(dp156
sI149
(dp157
sI150
(dp158
sI151
(dp159
sI152
(dp160
sI153
(dp161
sI154
(dp162
sI155
(dp163
sI156
(dp164
sI157
(dp165
sI158
(dp166
sI159
(dp167
sI160
(dp168
sI161
(dp169
sI162
(dp170
sI163
(dp171
sI164
(dp172
sI165
(dp173
sI166
(dp174
sI167
(dp175
sI168
(dp176
sI169
(dp177
sI170
(dp178
sI171
(dp179
sI172
(dp180
sI173
(dp181
sI174
(dp182
sI175
(dp183
sI176
(dp184
sI177
(dp185
sI178
(dp186
sI179
(dp187
sI180
(dp188
sI181
(dp189
sI182
(dp190
sI183
(dp191
sI184
(dp192
sI185
(dp193
sI186
(dp194
sI187
(dp195
sI188
(dp196
sI189
(dp197
sI190
(dp198
sI191
(dp199
sI192
(dp200
sI193
(dp201
sI194
(dp202
sI195
(dp203
sI196
(dp204
sI197
(dp205
sI198
(dp206
sI199
(dp207
sI200
(dp208
sI201
(dp209
sI202
(dp210
sI203
(dp211
sI204
(dp212
sI205
(dp213
sI206
(dp214
sI207
(dp215
sI208
(dp216
sI209
(dp217
sI210
(dp218
sI211
(dp219
sI212
(dp220
sI213
(dp221
sI214
(dp222
sI215
(dp223
sI216
(dp224
sI217
(dp225
sI218
(dp226
sI219
(dp227
sI220
(dp228
sI221
(dp229
sI222
(dp230
sI223
(dp231
sI224
(dp232
sI225
(dp233
sI226
(dp234
sI227
(dp235
sI228
(dp236
sI229
(dp237
sI230
(dp238
sI231
(dp239
sI232
(dp240
sI233
(dp241
sI234
(dp242
sI235
(dp243
sI236
(dp244
sI237
(dp245
sI238
(dp246
sI239
(dp247
sI240
(dp248
sI241
(dp249
sI242
(dp250
sI243
(dp251
sI244
(dp252
sI245
(dp253
sI246
(dp254
sI247
(dp255
sI248
(dp256
sI249
(dp257
sI250
(dp258
sI251
(dp259
sI252
(dp260
sI253
(dp261
sI254
(dp262
sI255
(dp263
sI256
(dp264
sI257
(dp265
sI258
(dp266
sI259
(dp267
sI260
(dp268
sI261
(dp269
sI262
(dp270
sI263
(dp271
sI264
(dp272
sI265
(dp273
sI266
(dp274
sI267
(dp275
sI268
(dp276
sI269
(dp277
sI270
(dp278
sI271
(dp279
sI272
(dp280
sI273
(dp281
sI274
(dp282
sI275
(dp283
sI276
(dp284
sI277
(dp285
sI278
(dp286
sI279
(dp287
sI280
(dp288
sI281
(dp289
sI282
(dp290
sI283
(dp291
sI284
(dp292
sI285
(dp293
sI286
(dp294
sI287
(dp295
sI288
(dp296
sI289
(dp297
sI290
(dp298
sI291
(dp299
sI292
(dp300
sI293
(dp301
sI294
(dp302
sI295
(dp303
sI296
(dp304
sI297
(dp305
sI298
(dp306
sI299
(dp307
ssS'graph'
p308
(dp309
S'name'
p310
S'(Powerlaw-Cluster Graph)_with_int_labels'
p311
ssS'edge'
p312
(dp313
I0
(dp314
I40
(dp315
sI41
(dp316
sI42
(dp317
sI44
(dp318
sI45
(dp319
sI46
(dp320
sI47
(dp321
sI48
(dp322
sI49
(dp323
sI50
(dp324
sI54
(dp325
sI56
(dp326
sI58
(dp327
sI59
(dp328
sI60
(dp329
sI62
(dp330
sI63
(dp331
sI66
(dp332
sI67
(dp333
sI68
(dp334
sI69
(dp335
sI71
(dp336
sI72
(dp337
sI73
(dp338
sI75
(dp339
sI76
(dp340
sI77
(dp341
sI78
(dp342
sI81
(dp343
sI82
(dp344
sI89
(dp345
sI90
(dp346
sI93
(dp347
sI96
(dp348
ssI1
(dp349
I40
(dp350
sI41
(dp351
sI42
(dp352
sI43
(dp353
sI44
(dp354
sI45
(dp355
sI46
(dp356
sI47
(dp357
sI48
(dp358
sI50
(dp359
sI51
(dp360
sI52
(dp361
sI54
(dp362
sI55
(dp363
sI56
(dp364
sI57
(dp365
sI58
(dp366
sI59
(dp367
sI60
(dp368
sI61
(dp369
sI62
(dp370
sI63
(dp371
sI66
(dp372
sI67
(dp373
sI73
(dp374
sI76
(dp375
sI77
(dp376
sI80
(dp377
sI86
(dp378
sI88
(dp379
sI96
(dp380
sI97
(dp381
sI98
(dp382
ssI2
(dp383
I40
(dp384
sI41
(dp385
sI42
(dp386
sI43
(dp387
sI44
(dp388
sI45
(dp389
sI46
(dp390
sI47
(dp391
sI48
(dp392
sI49
(dp393
sI50
(dp394
sI51
(dp395
sI52
(dp396
sI53
(dp397
sI54
(dp398
sI56
(dp399
sI57
(dp400
sI58
(dp401
sI59
(dp402
sI61
(dp403
sI62
(dp404
sI63
(dp405
sI65
(dp406
sI67
(dp407
sI68
(dp408
sI69
(dp409
sI72
(dp410
sI74
(dp411
sI80
(dp412
sI81
(dp413
sI83
(dp414
sI86
(dp415
sI87
(dp416
sI89
(dp417
sI94
(dp418
sI97
(dp419
sI98
(dp420
ssI3
(dp421
I40
(dp422
sI41
(dp423
sI42
(dp424
sI43
(dp425
sI44
(dp426
sI45
(dp427
sI46
(dp428
sI49
(dp429
sI50
(dp430
sI51
(dp431
sI52
(dp432
sI53
(dp433
sI55
(dp434
sI57
(dp435
sI58
(dp436
sI59
(dp437
sI60
(dp438
sI62
(dp439
sI63
(dp440
sI64
(dp441
sI65
(dp442
sI66
(dp443
sI67
(dp444
sI68
(dp445
sI69
(dp446
sI70
(dp447
sI72
(dp448
sI75
(dp449
sI76
(dp450
sI79
(dp451
sI80
(dp452
sI81
(dp453
sI83
(dp454
sI85
(dp455
sI89
(dp456
sI90
(dp457
sI93
(dp458
sI97
(dp459
sI99
(dp460
ssI4
(dp461
I128
(dp462
sI40
(dp463
sI41
(dp464
sI42
(dp465
sI43
(dp466
sI44
(dp467
sI45
(dp468
sI46
(dp469
sI48
(dp470
sI50
(dp471
sI51
(dp472
sI52
(dp473
sI53
(dp474
sI54
(dp475
sI60
(dp476
sI63
(dp477
sI64
(dp478
sI65
(dp479
sI66
(dp480
sI71
(dp481
sI74
(dp482
sI75
(dp483
sI78
(dp484
sI79
(dp485
sI80
(dp486
sI81
(dp487
sI85
(dp488
sI87
(dp489
sI90
(dp490
sI91
(dp491
sI92
(dp492
sI98
(dp493
ssI5
(dp494
I40
(dp495
sI41
(dp496
sI42
(dp497
sI43
(dp498
sI44
(dp499
sI46
(dp500
sI47
(dp501
sI49
(dp502
sI50
(dp503
sI52
(dp504
sI56
(dp505
sI57
(dp506
sI58
(dp507
sI64
(dp508
sI65
(dp509
sI67
(dp510
sI70
(dp511
sI71
(dp512
sI72
(dp513
sI74
(dp514
sI79
(dp515
sI81
(dp516
sI83
(dp517
sI86
(dp518
sI87
(dp519
sI91
(dp520
sI93
(dp521
sI94
(dp522
sI95
(dp523
sI97
(dp524
sI99
(dp525
ssI6
(dp526
I40
(dp527
sI41
(dp528
sI42
(dp529
sI43
(dp530
sI44
(dp531
sI45
(dp532
sI46
(dp533
sI47
(dp534
sI48
(dp535
sI50
(dp536
sI51
(dp537
sI52
(dp538
sI53
(dp539
sI54
(dp540
sI55
(dp541
sI56
(dp542
sI57
(dp543
sI58
(dp544
sI61
(dp545
sI62
(dp546
sI63
(dp547
sI64
(dp548
sI65
(dp549
sI72
(dp550
sI75
(dp551
sI76
(dp552
sI78
(dp553
sI79
(dp554
sI81
(dp555
sI82
(dp556
sI83
(dp557
sI84
(dp558
sI85
(dp559
sI86
(dp560
ssI7
(dp561
I40
(dp562
sI41
(dp563
sI42
(dp564
sI43
(dp565
sI44
(dp566
sI45
(dp567
sI46
(dp568
sI47
(dp569
sI48
(dp570
sI49
(dp571
sI50
(dp572
sI51
(dp573
sI53
(dp574
sI54
(dp575
sI55
(dp576
sI56
(dp577
sI57
(dp578
sI58
(dp579
sI61
(dp580
sI62
(dp581
sI63
(dp582
sI64
(dp583
sI65
(dp584
sI66
(dp585
sI73
(dp586
sI202
(dp587
sI78
(dp588
sI81
(dp589
sI82
(dp590
sI84
(dp591
sI85
(dp592
sI90
(dp593
sI91
(dp594
sI94
(dp595
sI95
(dp596
sI96
(dp597
ssI8
(dp598
I40
(dp599
sI41
(dp600
sI42
(dp601
sI43
(dp602
sI44
(dp603
sI45
(dp604
sI46
(dp605
sI47
(dp606
sI48
(dp607
sI50
(dp608
sI51
(dp609
sI53
(dp610
sI54
(dp611
sI55
(dp612
sI57
(dp613
sI60
(dp614
sI61
(dp615
sI62
(dp616
sI63
(dp617
sI65
(dp618
sI66
(dp619
sI67
(dp620
sI68
(dp621
sI72
(dp622
sI76
(dp623
sI80
(dp624
sI81
(dp625
sI84
(dp626
sI85
(dp627
sI86
(dp628
sI87
(dp629
sI99
(dp630
ssI9
(dp631
I40
(dp632
sI42
(dp633
sI43
(dp634
sI45
(dp635
sI46
(dp636
sI47
(dp637
sI48
(dp638
sI49
(dp639
sI50
(dp640
sI51
(dp641
sI52
(dp642
sI53
(dp643
sI55
(dp644
sI56
(dp645
sI58
(dp646
sI60
(dp647
sI62
(dp648
sI67
(dp649
sI72
(dp650
sI73
(dp651
sI74
(dp652
sI76
(dp653
sI86
(dp654
sI88
(dp655
sI91
(dp656
sI92
(dp657
sI93
(dp658
sI95
(dp659
sI96
(dp660
sI227
(dp661
sI104
(dp662
ssI10
(dp663
I40
(dp664
sI41
(dp665
sI42
(dp666
sI43
(dp667
sI44
(dp668
sI45
(dp669
sI46
(dp670
sI47
(dp671
sI48
(dp672
sI49
(dp673
sI50
(dp674
sI51
(dp675
sI52
(dp676
sI53
(dp677
sI54
(dp678
sI55
(dp679
sI56
(dp680
sI57
(dp681
sI58
(dp682
sI59
(dp683
sI63
(dp684
sI64
(dp685
sI66
(dp686
sI67
(dp687
sI68
(dp688
sI69
(dp689
sI70
(dp690
sI71
(dp691
sI75
(dp692
sI78
(dp693
sI84
(dp694
sI85
(dp695
sI89
(dp696
sI98
(dp697
ssI11
(dp698
I40
(dp699
sI41
(dp700
sI42
(dp701
sI43
(dp702
sI44
(dp703
sI45
(dp704
sI46
(dp705
sI47
(dp706
sI48
(dp707
sI49
(dp708
sI50
(dp709
sI51
(dp710
sI52
(dp711
sI53
(dp712
sI54
(dp713
sI56
(dp714
sI57
(dp715
sI58
(dp716
sI59
(dp717
sI60
(dp718
sI61
(dp719
sI62
(dp720
sI63
(dp721
sI65
(dp722
sI66
(dp723
sI67
(dp724
sI68
(dp725
sI70
(dp726
sI71
(dp727
sI73
(dp728
sI74
(dp729
sI75
(dp730
sI76
(dp731
sI81
(dp732
sI84
(dp733
sI85
(dp734
sI88
(dp735
sI89
(dp736
sI91
(dp737
sI95
(dp738
ssI12
(dp739
I40
(dp740
sI41
(dp741
sI43
(dp742
sI44
(dp743
sI47
(dp744
sI49
(dp745
sI51
(dp746
sI52
(dp747
sI56
(dp748
sI57
(dp749
sI59
(dp750
sI61
(dp751
sI62
(dp752
sI64
(dp753
sI71
(dp754
sI72
(dp755
sI73
(dp756
sI77
(dp757
sI80
(dp758
sI84
(dp759
sI85
(dp760
sI88
(dp761
sI90
(dp762
sI91
(dp763
sI94
(dp764
sI97
(dp765
ssI13
(dp766
I263
(dp767
sI40
(dp768
sI41
(dp769
sI42
(dp770
sI43
(dp771
sI44
(dp772
sI45
(dp773
sI46
(dp774
sI48
(dp775
sI49
(dp776
sI50
(dp777
sI51
(dp778
sI52
(dp779
sI53
(dp780
sI55
(dp781
sI59
(dp782
sI61
(dp783
sI63
(dp784
sI65
(dp785
sI69
(dp786
sI70
(dp787
sI72
(dp788
sI74
(dp789
sI76
(dp790
sI88
(dp791
sI93
(dp792
sI99
(dp793
ssI14
(dp794
I40
(dp795
sI41
(dp796
sI42
(dp797
sI43
(dp798
sI44
(dp799
sI45
(dp800
sI46
(dp801
sI47
(dp802
sI48
(dp803
sI49
(dp804
sI50
(dp805
sI51
(dp806
sI53
(dp807
sI54
(dp808
sI55
(dp809
sI57
(dp810
sI58
(dp811
sI61
(dp812
sI63
(dp813
sI64
(dp814
sI65
(dp815
sI66
(dp816
sI68
(dp817
sI69
(dp818
sI70
(dp819
sI72
(dp820
sI77
(dp821
sI78
(dp822
sI79
(dp823
sI82
(dp824
sI85
(dp825
sI87
(dp826
sI89
(dp827
sI95
(dp828
ssI15
(dp829
I64
(dp830
sI69
(dp831
sI71
(dp832
sI40
(dp833
sI41
(dp834
sI42
(dp835
sI43
(dp836
sI44
(dp837
sI45
(dp838
sI46
(dp839
sI47
(dp840
sI48
(dp841
sI49
(dp842
sI51
(dp843
sI52
(dp844
sI56
(dp845
sI57
(dp846
sI59
(dp847
sI60
(dp848
sI61
(dp849
ssI16
(dp850
I40
(dp851
sI41
(dp852
sI42
(dp853
sI43
(dp854
sI44
(dp855
sI45
(dp856
sI46
(dp857
sI48
(dp858
sI49
(dp859
sI50
(dp860
sI52
(dp861
sI53
(dp862
sI55
(dp863
sI56
(dp864
sI58
(dp865
sI59
(dp866
sI60
(dp867
sI65
(dp868
sI67
(dp869
sI68
(dp870
sI82
(dp871
sI85
(dp872
sI90
(dp873
sI91
(dp874
sI92
(dp875
sI94
(dp876
sI97
(dp877
ssI17
(dp878
I40
(dp879
sI41
(dp880
sI42
(dp881
sI43
(dp882
sI44
(dp883
sI45
(dp884
sI46
(dp885
sI48
(dp886
sI49
(dp887
sI50
(dp888
sI51
(dp889
sI52
(dp890
sI54
(dp891
sI55
(dp892
sI56
(dp893
sI58
(dp894
sI59
(dp895
sI60
(dp896
sI63
(dp897
sI64
(dp898
sI65
(dp899
sI69
(dp900
sI73
(dp901
sI74
(dp902
sI77
(dp903
sI86
(dp904
sI89
(dp905
sI92
(dp906
sI94
(dp907
ssI18
(dp908
I40
(dp909
sI41
(dp910
sI42
(dp911
sI43
(dp912
sI44
(dp913
sI45
(dp914
sI46
(dp915
sI47
(dp916
sI48
(dp917
sI51
(dp918
sI54
(dp919
sI55
(dp920
sI60
(dp921
sI62
(dp922
sI64
(dp923
sI65
(dp924
sI66
(dp925
sI71
(dp926
sI73
(dp927
sI77
(dp928
sI79
(dp929
sI82
(dp930
sI84
(dp931
sI92
(dp932
sI93
(dp933
sI94
(dp934
sI97
(dp935
sI98
(dp936
sI99
(dp937
ssI19
(dp938
I40
(dp939
sI41
(dp940
sI42
(dp941
sI43
(dp942
sI44
(dp943
sI45
(dp944
sI46
(dp945
sI47
(dp946
sI48
(dp947
sI49
(dp948
sI50
(dp949
sI51
(dp950
sI52
(dp951
sI54
(dp952
sI55
(dp953
sI57
(dp954
sI59
(dp955
sI65
(dp956
sI67
(dp957
sI68
(dp958
sI70
(dp959
sI77
(dp960
sI80
(dp961
sI81
(dp962
sI93
(dp963
sI98
(dp964
ssI20
(dp965
I137
(dp966
sI40
(dp967
sI41
(dp968
sI42
(dp969
sI43
(dp970
sI44
(dp971
sI45
(dp972
sI46
(dp973
sI47
(dp974
sI48
(dp975
sI49
(dp976
sI50
(dp977
sI51
(dp978
sI52
(dp979
sI53
(dp980
sI54
(dp981
sI55
(dp982
sI57
(dp983
sI59
(dp984
sI62
(dp985
sI66
(dp986
sI67
(dp987
sI69
(dp988
sI70
(dp989
sI74
(dp990
sI77
(dp991
sI79
(dp992
sI81
(dp993
sI85
(dp994
sI88
(dp995
sI90
(dp996
sI91
(dp997
sI94
(dp998
sI98
(dp999
sI99
(dp1000
ssI21
(dp1001
I40
(dp1002
sI41
(dp1003
sI42
(dp1004
sI43
(dp1005
sI44
(dp1006
sI45
(dp1007
sI46
(dp1008
sI47
(dp1009
sI48
(dp1010
sI49
(dp1011
sI51
(dp1012
sI52
(dp1013
sI53
(dp1014
sI54
(dp1015
sI55
(dp1016
sI57
(dp1017
sI60
(dp1018
sI66
(dp1019
sI70
(dp1020
sI71
(dp1021
sI79
(dp1022
sI85
(dp1023
sI86
(dp1024
sI94
(dp1025
sI98
(dp1026
ssI22
(dp1027
I40
(dp1028
sI41
(dp1029
sI42
(dp1030
sI43
(dp1031
sI44
(dp1032
sI45
(dp1033
sI46
(dp1034
sI47
(dp1035
sI48
(dp1036
sI49
(dp1037
sI50
(dp1038
sI51
(dp1039
sI52
(dp1040
sI53
(dp1041
sI55
(dp1042
sI56
(dp1043
sI57
(dp1044
sI58
(dp1045
sI59
(dp1046
sI61
(dp1047
sI62
(dp1048
sI63
(dp1049
sI64
(dp1050
sI65
(dp1051
sI69
(dp1052
sI74
(dp1053
sI82
(dp1054
ssI23
(dp1055
I40
(dp1056
sI41
(dp1057
sI42
(dp1058
sI43
(dp1059
sI44
(dp1060
sI45
(dp1061
sI46
(dp1062
sI47
(dp1063
sI48
(dp1064
sI49
(dp1065
sI50
(dp1066
sI53
(dp1067
sI54
(dp1068
sI55
(dp1069
sI56
(dp1070
sI57
(dp1071
sI59
(dp1072
sI61
(dp1073
sI62
(dp1074
sI63
(dp1075
sI66
(dp1076
sI67
(dp1077
sI69
(dp1078
sI71
(dp1079
sI74
(dp1080
sI87
(dp1081
sI90
(dp1082
sI93
(dp1083
sI94
(dp1084
ssI24
(dp1085
I80
(dp1086
sI98
(dp1087
sI81
(dp1088
sI40
(dp1089
sI41
(dp1090
sI42
(dp1091
sI43
(dp1092
sI44
(dp1093
sI47
(dp1094
sI48
(dp1095
sI49
(dp1096
sI51
(dp1097
sI53
(dp1098
sI54
(dp1099
sI90
(dp1100
sI59
(dp1101
sI61
(dp1102
ssI25
(dp1103
I40
(dp1104
sI41
(dp1105
sI42
(dp1106
sI43
(dp1107
sI44
(dp1108
sI45
(dp1109
sI46
(dp1110
sI47
(dp1111
sI48
(dp1112
sI49
(dp1113
sI50
(dp1114
sI52
(dp1115
sI54
(dp1116
sI55
(dp1117
sI56
(dp1118
sI57
(dp1119
sI58
(dp1120
sI59
(dp1121
sI60
(dp1122
sI61
(dp1123
sI62
(dp1124
sI63
(dp1125
sI64
(dp1126
sI66
(dp1127
sI71
(dp1128
sI80
(dp1129
sI87
(dp1130
sI89
(dp1131
sI90
(dp1132
sI93
(dp1133
sI97
(dp1134
sI99
(dp1135
ssI26
(dp1136
I40
(dp1137
sI41
(dp1138
sI42
(dp1139
sI43
(dp1140
sI44
(dp1141
sI45
(dp1142
sI46
(dp1143
sI47
(dp1144
sI48
(dp1145
sI49
(dp1146
sI50
(dp1147
sI51
(dp1148
sI52
(dp1149
sI53
(dp1150
sI55
(dp1151
sI56
(dp1152
sI60
(dp1153
sI61
(dp1154
sI62
(dp1155
sI63
(dp1156
sI64
(dp1157
sI194
(dp1158
sI74
(dp1159
sI77
(dp1160
sI87
(dp1161
ssI27
(dp1162
I40
(dp1163
sI41
(dp1164
sI42
(dp1165
sI43
(dp1166
sI44
(dp1167
sI45
(dp1168
sI46
(dp1169
sI47
(dp1170
sI48
(dp1171
sI49
(dp1172
sI50
(dp1173
sI51
(dp1174
sI52
(dp1175
sI53
(dp1176
sI54
(dp1177
sI55
(dp1178
sI58
(dp1179
sI59
(dp1180
sI61
(dp1181
sI62
(dp1182
sI68
(dp1183
sI77
(dp1184
sI82
(dp1185
sI87
(dp1186
ssI28
(dp1187
I64
(dp1188
sI68
(dp1189
sI40
(dp1190
sI41
(dp1191
sI43
(dp1192
sI44
(dp1193
sI77
(dp1194
sI46
(dp1195
sI47
(dp1196
sI48
(dp1197
sI49
(dp1198
sI50
(dp1199
sI52
(dp1200
sI82
(dp1201
sI54
(dp1202
sI89
(dp1203
sI56
(dp1204
sI57
(dp1205
sI60
(dp1206
sI61
(dp1207
sI53
(dp1208
ssI29
(dp1209
I68
(dp1210
sI70
(dp1211
sI40
(dp1212
sI41
(dp1213
sI42
(dp1214
sI43
(dp1215
sI44
(dp1216
sI46
(dp1217
sI47
(dp1218
sI48
(dp1219
sI49
(dp1220
sI50
(dp1221
sI52
(dp1222
sI53
(dp1223
sI56
(dp1224
sI58
(dp1225
sI59
(dp1226
sI60
(dp1227
ssI30
(dp1228
I82
(dp1229
sI70
(dp1230
sI40
(dp1231
sI41
(dp1232
sI42
(dp1233
sI43
(dp1234
sI44
(dp1235
sI45
(dp1236
sI47
(dp1237
sI48
(dp1238
sI50
(dp1239
sI51
(dp1240
sI56
(dp1241
sI58
(dp1242
sI59
(dp1243
sI60
(dp1244
sI61
(dp1245
ssI31
(dp1246
I82
(dp1247
sI47
(dp1248
sI40
(dp1249
sI41
(dp1250
sI42
(dp1251
sI43
(dp1252
sI77
(dp1253
sI46
(dp1254
sI45
(dp1255
sI48
(dp1256
sI50
(dp1257
sI51
(dp1258
sI53
(dp1259
sI54
(dp1260
sI55
(dp1261
sI56
(dp1262
sI164
(dp1263
sI90
(dp1264
sI59
(dp1265
sI60
(dp1266
sI62
(dp1267
ssI32
(dp1268
I40
(dp1269
sI41
(dp1270
sI42
(dp1271
sI43
(dp1272
sI45
(dp1273
sI46
(dp1274
sI47
(dp1275
sI51
(dp1276
sI53
(dp1277
sI55
(dp1278
sI57
(dp1279
sI58
(dp1280
ssI33
(dp1281
I64
(dp1282
sI40
(dp1283
sI41
(dp1284
sI42
(dp1285
sI43
(dp1286
sI44
(dp1287
sI45
(dp1288
sI46
(dp1289
sI47
(dp1290
sI48
(dp1291
sI49
(dp1292
sI50
(dp1293
sI51
(dp1294
sI53
(dp1295
sI54
(dp1296
sI55
(dp1297
sI56
(dp1298
sI57
(dp1299
sI61
(dp1300
ssI34
(dp1301
I163
(dp1302
sI81
(dp1303
sI40
(dp1304
sI41
(dp1305
sI42
(dp1306
sI43
(dp1307
sI44
(dp1308
sI45
(dp1309
sI46
(dp1310
sI47
(dp1311
sI48
(dp1312
sI49
(dp1313
sI52
(dp1314
sI53
(dp1315
sI55
(dp1316
sI56
(dp1317
sI57
(dp1318
ssI35
(dp1319
I98
(dp1320
sI199
(dp1321
sI40
(dp1322
sI41
(dp1323
sI42
(dp1324
sI43
(dp1325
sI44
(dp1326
sI45
(dp1327
sI226
(dp1328
sI49
(dp1329
sI50
(dp1330
sI51
(dp1331
sI52
(dp1332
sI53
(dp1333
sI54
(dp1334
sI57
(dp1335
sI58
(dp1336
ssI36
(dp1337
I98
(dp1338
sI82
(dp1339
sI40
(dp1340
sI41
(dp1341
sI42
(dp1342
sI43
(dp1343
sI44
(dp1344
sI45
(dp1345
sI49
(dp1346
sI50
(dp1347
sI51
(dp1348
sI54
(dp1349
sI55
(dp1350
sI56
(dp1351
sI58
(dp1352
sI60
(dp1353
ssI37
(dp1354
I40
(dp1355
sI41
(dp1356
sI42
(dp1357
sI43
(dp1358
sI44
(dp1359
sI45
(dp1360
sI270
(dp1361
sI47
(dp1362
sI52
(dp1363
sI58
(dp1364
sI60
(dp1365
ssI38
(dp1366
I40
(dp1367
sI41
(dp1368
sI42
(dp1369
sI44
(dp1370
sI45
(dp1371
sI46
(dp1372
sI47
(dp1373
sI48
(dp1374
sI49
(dp1375
sI52
(dp1376
sI53
(dp1377
sI54
(dp1378
ssI39
(dp1379
I196
(dp1380
sI40
(dp1381
sI41
(dp1382
sI42
(dp1383
sI45
(dp1384
sI46
(dp1385
sI47
(dp1386
sI49
(dp1387
sI52
(dp1388
sI54
(dp1389
ssI40
(dp1390
I0
g315
sI1
g350
sI2
g384
sI3
g422
sI4
g463
sI5
g495
sI6
g527
sI7
g562
sI8
g599
sI9
g632
sI10
g664
sI11
g699
sI12
g740
sI13
g768
sI14
g795
sI15
g833
sI16
g851
sI17
g879
sI18
g909
sI19
g939
sI20
g967
sI21
g1002
sI22
g1028
sI23
g1056
sI24
g1089
sI25
g1104
sI26
g1137
sI27
g1163
sI28
g1190
sI29
g1212
sI30
g1231
sI31
g1249
sI32
g1269
sI33
g1283
sI34
g1304
sI35
g1322
sI36
g1340
sI37
g1355
sI38
g1367
sI39
g1381
sI41
(dp1391
sI42
(dp1392
sI43
(dp1393
sI44
(dp1394
sI45
(dp1395
sI46
(dp1396
sI47
(dp1397
sI48
(dp1398
sI49
(dp1399
sI50
(dp1400
sI51
(dp1401
sI52
(dp1402
sI53
(dp1403
sI54
(dp1404
sI55
(dp1405
sI56
(dp1406
sI57
(dp1407
sI58
(dp1408
sI59
(dp1409
sI60
(dp1410
sI61
(dp1411
sI62
(dp1412
sI63
(dp1413
sI64
(dp1414
sI65
(dp1415
sI66
(dp1416
sI67
(dp1417
sI68
(dp1418
sI69
(dp1419
sI70
(dp1420
sI71
(dp1421
sI72
(dp1422
sI73
(dp1423
sI74
(dp1424
sI75
(dp1425
sI76
(dp1426
sI78
(dp1427
sI79
(dp1428
sI80
(dp1429
sI81
(dp1430
sI82
(dp1431
sI83
(dp1432
sI84
(dp1433
sI85
(dp1434
sI86
(dp1435
sI87
(dp1436
sI88
(dp1437
sI90
(dp1438
sI91
(dp1439
sI92
(dp1440
sI93
(dp1441
sI94
(dp1442
sI95
(dp1443
sI96
(dp1444
sI97
(dp1445
sI98
(dp1446
sI99
(dp1447
ssI41
(dp1448
I0
g316
sI1
g351
sI2
g385
sI3
g423
sI4
g464
sI5
g496
sI6
g528
sI7
g563
sI8
g600
sI10
g665
sI11
g700
sI12
g741
sI13
g769
sI14
g796
sI15
g834
sI16
g852
sI17
g880
sI18
g910
sI19
g940
sI20
g968
sI21
g1003
sI22
g1029
sI23
g1057
sI24
g1090
sI25
g1105
sI26
g1138
sI27
g1164
sI28
g1191
sI29
g1213
sI30
g1232
sI31
g1250
sI32
g1270
sI33
g1284
sI34
g1305
sI35
g1323
sI36
g1341
sI37
g1356
sI38
g1368
sI39
g1382
sI40
g1391
sI42
(dp1449
sI43
(dp1450
sI44
(dp1451
sI45
(dp1452
sI46
(dp1453
sI47
(dp1454
sI48
(dp1455
sI49
(dp1456
sI50
(dp1457
sI51
(dp1458
sI52
(dp1459
sI53
(dp1460
sI54
(dp1461
sI55
(dp1462
sI56
(dp1463
sI57
(dp1464
sI58
(dp1465
sI59
(dp1466
sI60
(dp1467
sI61
(dp1468
sI62
(dp1469
sI63
(dp1470
sI64
(dp1471
sI65
(dp1472
sI66
(dp1473
sI67
(dp1474
sI68
(dp1475
sI69
(dp1476
sI70
(dp1477
sI71
(dp1478
sI72
(dp1479
sI73
(dp1480
sI74
(dp1481
sI75
(dp1482
sI76
(dp1483
sI78
(dp1484
sI79
(dp1485
sI80
(dp1486
sI82
(dp1487
sI83
(dp1488
sI84
(dp1489
sI85
(dp1490
sI86
(dp1491
sI87
(dp1492
sI89
(dp1493
sI90
(dp1494
sI91
(dp1495
sI92
(dp1496
sI93
(dp1497
sI94
(dp1498
sI96
(dp1499
sI97
(dp1500
sI98
(dp1501
sI99
(dp1502
ssI42
(dp1503
I0
g317
sI1
g352
sI2
g386
sI3
g424
sI4
g465
sI5
g497
sI6
g529
sI7
g564
sI8
g601
sI9
g633
sI10
g666
sI11
g701
sI13
g770
sI14
g797
sI15
g835
sI16
g853
sI17
g881
sI18
g911
sI19
g941
sI20
g969
sI21
g1004
sI22
g1030
sI23
g1058
sI24
g1091
sI25
g1106
sI26
g1139
sI27
g1165
sI29
g1214
sI30
g1233
sI31
g1251
sI32
g1271
sI33
g1285
sI34
g1306
sI35
g1324
sI36
g1342
sI37
g1357
sI38
g1369
sI39
g1383
sI40
g1392
sI41
g1449
sI43
(dp1504
sI44
(dp1505
sI45
(dp1506
sI46
(dp1507
sI47
(dp1508
sI48
(dp1509
sI49
(dp1510
sI50
(dp1511
sI51
(dp1512
sI52
(dp1513
sI53
(dp1514
sI54
(dp1515
sI55
(dp1516
sI56
(dp1517
sI57
(dp1518
sI58
(dp1519
sI59
(dp1520
sI60
(dp1521
sI61
(dp1522
sI62
(dp1523
sI63
(dp1524
sI64
(dp1525
sI65
(dp1526
sI66
(dp1527
sI67
(dp1528
sI68
(dp1529
sI69
(dp1530
sI70
(dp1531
sI71
(dp1532
sI72
(dp1533
sI73
(dp1534
sI74
(dp1535
sI75
(dp1536
sI76
(dp1537
sI77
(dp1538
sI78
(dp1539
sI79
(dp1540
sI80
(dp1541
sI81
(dp1542
sI82
(dp1543
sI83
(dp1544
sI84
(dp1545
sI85
(dp1546
sI86
(dp1547
sI87
(dp1548
sI88
(dp1549
sI89
(dp1550
sI90
(dp1551
sI91
(dp1552
sI92
(dp1553
sI94
(dp1554
sI95
(dp1555
sI96
(dp1556
sI97
(dp1557
sI98
(dp1558
sI99
(dp1559
ssI43
(dp1560
I1
g353
sI2
g387
sI3
g425
sI4
g466
sI5
g498
sI6
g530
sI7
g565
sI8
g602
sI9
g634
sI10
g667
sI11
g702
sI12
g742
sI13
g771
sI14
g798
sI15
g836
sI16
g854
sI17
g882
sI18
g912
sI19
g942
sI20
g970
sI21
g1005
sI22
g1031
sI23
g1059
sI24
g1092
sI25
g1107
sI26
g1140
sI27
g1166
sI28
g1192
sI29
g1215
sI30
g1234
sI31
g1252
sI32
g1272
sI33
g1286
sI34
g1307
sI35
g1325
sI36
g1343
sI37
g1358
sI40
g1393
sI41
g1450
sI42
g1504
sI44
(dp1561
sI45
(dp1562
sI46
(dp1563
sI47
(dp1564
sI48
(dp1565
sI49
(dp1566
sI50
(dp1567
sI51
(dp1568
sI52
(dp1569
sI53
(dp1570
sI54
(dp1571
sI55
(dp1572
sI56
(dp1573
sI57
(dp1574
sI58
(dp1575
sI59
(dp1576
sI60
(dp1577
sI61
(dp1578
sI62
(dp1579
sI63
(dp1580
sI64
(dp1581
sI65
(dp1582
sI66
(dp1583
sI67
(dp1584
sI68
(dp1585
sI69
(dp1586
sI70
(dp1587
sI71
(dp1588
sI72
(dp1589
sI73
(dp1590
sI74
(dp1591
sI75
(dp1592
sI76
(dp1593
sI78
(dp1594
sI79
(dp1595
sI80
(dp1596
sI81
(dp1597
sI82
(dp1598
sI83
(dp1599
sI84
(dp1600
sI85
(dp1601
sI86
(dp1602
sI87
(dp1603
sI88
(dp1604
sI89
(dp1605
sI90
(dp1606
sI91
(dp1607
sI92
(dp1608
sI93
(dp1609
sI94
(dp1610
sI95
(dp1611
sI96
(dp1612
sI99
(dp1613
ssI44
(dp1614
I0
g318
sI1
g354
sI2
g388
sI3
g426
sI4
g467
sI5
g499
sI6
g531
sI7
g566
sI8
g603
sI10
g668
sI11
g703
sI12
g743
sI13
g772
sI14
g799
sI15
g837
sI16
g855
sI17
g883
sI18
g913
sI19
g943
sI20
g971
sI21
g1006
sI22
g1032
sI23
g1060
sI24
g1093
sI25
g1108
sI26
g1141
sI27
g1167
sI28
g1193
sI29
g1216
sI30
g1235
sI33
g1287
sI34
g1308
sI35
g1326
sI36
g1344
sI37
g1359
sI38
g1370
sI40
g1394
sI41
g1451
sI42
g1505
sI43
g1561
sI45
(dp1615
sI46
(dp1616
sI47
(dp1617
sI48
(dp1618
sI49
(dp1619
sI50
(dp1620
sI51
(dp1621
sI52
(dp1622
sI53
(dp1623
sI54
(dp1624
sI55
(dp1625
sI56
(dp1626
sI57
(dp1627
sI58
(dp1628
sI59
(dp1629
sI60
(dp1630
sI61
(dp1631
sI62
(dp1632
sI63
(dp1633
sI64
(dp1634
sI65
(dp1635
sI66
(dp1636
sI67
(dp1637
sI68
(dp1638
sI69
(dp1639
sI70
(dp1640
sI71
(dp1641
sI72
(dp1642
sI73
(dp1643
sI74
(dp1644
sI75
(dp1645
sI76
(dp1646
sI77
(dp1647
sI78
(dp1648
sI79
(dp1649
sI80
(dp1650
sI81
(dp1651
sI82
(dp1652
sI83
(dp1653
sI84
(dp1654
sI85
(dp1655
sI86
(dp1656
sI87
(dp1657
sI88
(dp1658
sI89
(dp1659
sI90
(dp1660
sI91
(dp1661
sI92
(dp1662
sI93
(dp1663
sI94
(dp1664
sI95
(dp1665
sI96
(dp1666
sI97
(dp1667
sI99
(dp1668
ssI45
(dp1669
I0
g319
sI1
g355
sI2
g389
sI3
g427
sI4
g468
sI6
g532
sI7
g567
sI8
g604
sI9
g635
sI10
g669
sI11
g704
sI13
g773
sI14
g800
sI15
g838
sI16
g856
sI17
g884
sI18
g914
sI19
g944
sI20
g972
sI21
g1007
sI22
g1033
sI23
g1061
sI25
g1109
sI26
g1142
sI27
g1168
sI30
g1236
sI31
g1255
sI32
g1273
sI33
g1288
sI34
g1309
sI35
g1327
sI36
g1345
sI37
g1360
sI38
g1371
sI39
g1384
sI40
g1395
sI41
g1452
sI42
g1506
sI43
g1562
sI44
g1615
sI46
(dp1670
sI47
(dp1671
sI48
(dp1672
sI49
(dp1673
sI50
(dp1674
sI51
(dp1675
sI52
(dp1676
sI53
(dp1677
sI54
(dp1678
sI55
(dp1679
sI56
(dp1680
sI57
(dp1681
sI58
(dp1682
sI59
(dp1683
sI60
(dp1684
sI61
(dp1685
sI62
(dp1686
sI63
(dp1687
sI64
(dp1688
sI65
(dp1689
sI66
(dp1690
sI67
(dp1691
sI68
(dp1692
sI69
(dp1693
sI70
(dp1694
sI71
(dp1695
sI72
(dp1696
sI73
(dp1697
sI74
(dp1698
sI75
(dp1699
sI76
(dp1700
sI77
(dp1701
sI78
(dp1702
sI79
(dp1703
sI80
(dp1704
sI81
(dp1705
sI82
(dp1706
sI83
(dp1707
sI84
(dp1708
sI85
(dp1709
sI86
(dp1710
sI87
(dp1711
sI88
(dp1712
sI89
(dp1713
sI90
(dp1714
sI91
(dp1715
sI92
(dp1716
sI93
(dp1717
sI94
(dp1718
sI95
(dp1719
sI96
(dp1720
sI97
(dp1721
sI98
(dp1722
sI99
(dp1723
sI240
(dp1724
ssI46
(dp1725
I0
g320
sI1
g356
sI2
g390
sI3
g428
sI4
g469
sI5
g500
sI6
g533
sI7
g568
sI8
g605
sI9
g636
sI10
g670
sI11
g705
sI13
g774
sI14
g801
sI15
g839
sI16
g857
sI17
g885
sI18
g915
sI19
g945
sI20
g973
sI21
g1008
sI22
g1034
sI23
g1062
sI25
g1110
sI26
g1143
sI27
g1169
sI28
g1195
sI29
g1217
sI31
g1254
sI32
g1274
sI33
g1289
sI34
g1310
sI38
g1372
sI39
g1385
sI40
g1396
sI41
g1453
sI42
g1507
sI43
g1563
sI44
g1616
sI45
g1670
sI47
(dp1726
sI48
(dp1727
sI49
(dp1728
sI50
(dp1729
sI51
(dp1730
sI52
(dp1731
sI53
(dp1732
sI54
(dp1733
sI55
(dp1734
sI56
(dp1735
sI57
(dp1736
sI58
(dp1737
sI59
(dp1738
sI60
(dp1739
sI61
(dp1740
sI62
(dp1741
sI63
(dp1742
sI64
(dp1743
sI65
(dp1744
sI66
(dp1745
sI67
(dp1746
sI68
(dp1747
sI69
(dp1748
sI70
(dp1749
sI71
(dp1750
sI72
(dp1751
sI73
(dp1752
sI74
(dp1753
sI75
(dp1754
sI76
(dp1755
sI77
(dp1756
sI78
(dp1757
sI79
(dp1758
sI80
(dp1759
sI82
(dp1760
sI83
(dp1761
sI84
(dp1762
sI85
(dp1763
sI86
(dp1764
sI87
(dp1765
sI88
(dp1766
sI89
(dp1767
sI91
(dp1768
sI92
(dp1769
sI93
(dp1770
sI95
(dp1771
sI97
(dp1772
sI99
(dp1773
sI217
(dp1774
ssI47
(dp1775
I0
g321
sI1
g357
sI2
g391
sI5
g501
sI6
g534
sI7
g569
sI8
g606
sI9
g637
sI10
g671
sI11
g706
sI12
g744
sI14
g802
sI15
g840
sI18
g916
sI19
g946
sI20
g974
sI21
g1009
sI22
g1035
sI23
g1063
sI24
g1094
sI25
g1111
sI26
g1144
sI27
g1170
sI28
g1196
sI29
g1218
sI30
g1237
sI31
g1248
sI32
g1275
sI33
g1290
sI34
g1311
sI37
g1362
sI38
g1373
sI39
g1386
sI40
g1397
sI41
g1454
sI42
g1508
sI43
g1564
sI44
g1617
sI45
g1671
sI46
g1726
sI48
(dp1776
sI49
(dp1777
sI50
(dp1778
sI51
(dp1779
sI52
(dp1780
sI53
(dp1781
sI54
(dp1782
sI55
(dp1783
sI56
(dp1784
sI57
(dp1785
sI58
(dp1786
sI59
(dp1787
sI60
(dp1788
sI61
(dp1789
sI62
(dp1790
sI63
(dp1791
sI64
(dp1792
sI65
(dp1793
sI66
(dp1794
sI67
(dp1795
sI68
(dp1796
sI69
(dp1797
sI70
(dp1798
sI71
(dp1799
sI72
(dp1800
sI73
(dp1801
sI74
(dp1802
sI75
(dp1803
sI76
(dp1804
sI77
(dp1805
sI78
(dp1806
sI79
(dp1807
sI80
(dp1808
sI81
(dp1809
sI83
(dp1810
sI84
(dp1811
sI86
(dp1812
sI87
(dp1813
sI88
(dp1814
sI89
(dp1815
sI90
(dp1816
sI91
(dp1817
sI93
(dp1818
sI95
(dp1819
sI96
(dp1820
sI97
(dp1821
sI99
(dp1822
ssI48
(dp1823
I0
g322
sI1
g358
sI2
g392
sI4
g470
sI6
g535
sI7
g570
sI8
g607
sI9
g638
sI10
g672
sI11
g707
sI13
g775
sI14
g803
sI15
g841
sI16
g858
sI17
g886
sI18
g917
sI19
g947
sI20
g975
sI21
g1010
sI22
g1036
sI23
g1064
sI24
g1095
sI25
g1112
sI26
g1145
sI27
g1171
sI28
g1197
sI29
g1219
sI30
g1238
sI31
g1256
sI33
g1291
sI34
g1312
sI38
g1374
sI40
g1398
sI41
g1455
sI42
g1509
sI43
g1565
sI44
g1618
sI45
g1672
sI46
g1727
sI47
g1776
sI49
(dp1824
sI50
(dp1825
sI51
(dp1826
sI52
(dp1827
sI53
(dp1828
sI54
(dp1829
sI55
(dp1830
sI56
(dp1831
sI57
(dp1832
sI58
(dp1833
sI59
(dp1834
sI60
(dp1835
sI61
(dp1836
sI62
(dp1837
sI63
(dp1838
sI64
(dp1839
sI65
(dp1840
sI66
(dp1841
sI67
(dp1842
sI68
(dp1843
sI69
(dp1844
sI70
(dp1845
sI71
(dp1846
sI72
(dp1847
sI73
(dp1848
sI74
(dp1849
sI75
(dp1850
sI76
(dp1851
sI77
(dp1852
sI78
(dp1853
sI79
(dp1854
sI80
(dp1855
sI81
(dp1856
sI82
(dp1857
sI83
(dp1858
sI84
(dp1859
sI85
(dp1860
sI86
(dp1861
sI87
(dp1862
sI88
(dp1863
sI90
(dp1864
sI91
(dp1865
sI92
(dp1866
sI93
(dp1867
sI94
(dp1868
sI95
(dp1869
sI96
(dp1870
sI98
(dp1871
ssI49
(dp1872
I0
g323
sI2
g393
sI3
g429
sI5
g502
sI7
g571
sI9
g639
sI10
g673
sI11
g708
sI12
g745
sI13
g776
sI14
g804
sI15
g842
sI16
g859
sI17
g887
sI19
g948
sI20
g976
sI21
g1011
sI22
g1037
sI23
g1065
sI24
g1096
sI25
g1113
sI26
g1146
sI27
g1172
sI28
g1198
sI29
g1220
sI33
g1292
sI34
g1313
sI35
g1329
sI36
g1346
sI38
g1375
sI39
g1387
sI40
g1399
sI41
g1456
sI42
g1510
sI43
g1566
sI44
g1619
sI45
g1673
sI46
g1728
sI47
g1777
sI48
g1824
sI50
(dp1873
sI51
(dp1874
sI52
(dp1875
sI53
(dp1876
sI54
(dp1877
sI55
(dp1878
sI56
(dp1879
sI57
(dp1880
sI58
(dp1881
sI59
(dp1882
sI60
(dp1883
sI61
(dp1884
sI62
(dp1885
sI63
(dp1886
sI64
(dp1887
sI65
(dp1888
sI66
(dp1889
sI67
(dp1890
sI68
(dp1891
sI69
(dp1892
sI70
(dp1893
sI71
(dp1894
sI72
(dp1895
sI73
(dp1896
sI74
(dp1897
sI75
(dp1898
sI76
(dp1899
sI77
(dp1900
sI78
(dp1901
sI79
(dp1902
sI80
(dp1903
sI81
(dp1904
sI82
(dp1905
sI84
(dp1906
sI85
(dp1907
sI86
(dp1908
sI87
(dp1909
sI88
(dp1910
sI89
(dp1911
sI91
(dp1912
sI92
(dp1913
sI93
(dp1914
sI95
(dp1915
sI96
(dp1916
sI97
(dp1917
sI98
(dp1918
sI99
(dp1919
ssI50
(dp1920
I0
g324
sI1
g359
sI2
g394
sI3
g430
sI4
g471
sI5
g503
sI6
g536
sI7
g572
sI8
g608
sI9
g640
sI10
g674
sI11
g709
sI13
g777
sI14
g805
sI16
g860
sI17
g888
sI19
g949
sI20
g977
sI22
g1038
sI23
g1066
sI25
g1114
sI26
g1147
sI27
g1173
sI28
g1199
sI29
g1221
sI30
g1239
sI31
g1257
sI33
g1293
sI35
g1330
sI36
g1347
sI40
g1400
sI41
g1457
sI42
g1511
sI43
g1567
sI44
g1620
sI45
g1674
sI46
g1729
sI47
g1778
sI48
g1825
sI49
g1873
sI51
(dp1921
sI52
(dp1922
sI53
(dp1923
sI54
(dp1924
sI55
(dp1925
sI56
(dp1926
sI57
(dp1927
sI58
(dp1928
sI59
(dp1929
sI60
(dp1930
sI61
(dp1931
sI62
(dp1932
sI63
(dp1933
sI64
(dp1934
sI65
(dp1935
sI66
(dp1936
sI67
(dp1937
sI68
(dp1938
sI69
(dp1939
sI70
(dp1940
sI71
(dp1941
sI72
(dp1942
sI73
(dp1943
sI75
(dp1944
sI76
(dp1945
sI77
(dp1946
sI78
(dp1947
sI79
(dp1948
sI80
(dp1949
sI82
(dp1950
sI83
(dp1951
sI85
(dp1952
sI86
(dp1953
sI87
(dp1954
sI88
(dp1955
sI89
(dp1956
sI90
(dp1957
sI91
(dp1958
sI92
(dp1959
sI93
(dp1960
sI94
(dp1961
sI95
(dp1962
sI96
(dp1963
sI97
(dp1964
sI99
(dp1965
sI236
(dp1966
ssI51
(dp1967
I1
g360
sI2
g395
sI3
g431
sI4
g472
sI6
g537
sI7
g573
sI8
g609
sI9
g641
sI10
g675
sI11
g710
sI12
g746
sI13
g778
sI14
g806
sI15
g843
sI17
g889
sI18
g918
sI19
g950
sI20
g978
sI21
g1012
sI22
g1039
sI24
g1097
sI26
g1148
sI27
g1174
sI30
g1240
sI31
g1258
sI32
g1276
sI33
g1294
sI35
g1331
sI36
g1348
sI40
g1401
sI41
g1458
sI42
g1512
sI43
g1568
sI44
g1621
sI45
g1675
sI46
g1730
sI47
g1779
sI48
g1826
sI49
g1874
sI50
g1921
sI52
(dp1968
sI53
(dp1969
sI54
(dp1970
sI55
(dp1971
sI56
(dp1972
sI57
(dp1973
sI58
(dp1974
sI59
(dp1975
sI60
(dp1976
sI61
(dp1977
sI62
(dp1978
sI63
(dp1979
sI64
(dp1980
sI65
(dp1981
sI66
(dp1982
sI67
(dp1983
sI68
(dp1984
sI69
(dp1985
sI70
(dp1986
sI71
(dp1987
sI72
(dp1988
sI73
(dp1989
sI74
(dp1990
sI75
(dp1991
sI76
(dp1992
sI77
(dp1993
sI78
(dp1994
sI79
(dp1995
sI81
(dp1996
sI82
(dp1997
sI83
(dp1998
sI84
(dp1999
sI86
(dp2000
sI87
(dp2001
sI88
(dp2002
sI89
(dp2003
sI90
(dp2004
sI91
(dp2005
sI92
(dp2006
sI93
(dp2007
sI94
(dp2008
sI95
(dp2009
sI96
(dp2010
sI97
(dp2011
sI99
(dp2012
ssI52
(dp2013
I1
g361
sI2
g396
sI3
g432
sI4
g473
sI5
g504
sI6
g538
sI9
g642
sI10
g676
sI11
g711
sI12
g747
sI13
g779
sI15
g844
sI16
g861
sI17
g890
sI19
g951
sI20
g979
sI21
g1013
sI22
g1040
sI25
g1115
sI26
g1149
sI27
g1175
sI28
g1200
sI29
g1222
sI34
g1314
sI35
g1332
sI37
g1363
sI38
g1376
sI39
g1388
sI40
g1402
sI41
g1459
sI42
g1513
sI43
g1569
sI44
g1622
sI45
g1676
sI46
g1731
sI47
g1780
sI48
g1827
sI49
g1875
sI50
g1922
sI51
g1968
sI53
(dp2014
sI54
(dp2015
sI55
(dp2016
sI56
(dp2017
sI57
(dp2018
sI58
(dp2019
sI59
(dp2020
sI60
(dp2021
sI61
(dp2022
sI62
(dp2023
sI63
(dp2024
sI64
(dp2025
sI65
(dp2026
sI66
(dp2027
sI67
(dp2028
sI68
(dp2029
sI69
(dp2030
sI70
(dp2031
sI71
(dp2032
sI72
(dp2033
sI73
(dp2034
sI74
(dp2035
sI75
(dp2036
sI76
(dp2037
sI77
(dp2038
sI78
(dp2039
sI79
(dp2040
sI80
(dp2041
sI81
(dp2042
sI82
(dp2043
sI83
(dp2044
sI84
(dp2045
sI85
(dp2046
sI86
(dp2047
sI87
(dp2048
sI88
(dp2049
sI89
(dp2050
sI90
(dp2051
sI91
(dp2052
sI92
(dp2053
sI94
(dp2054
sI95
(dp2055
sI96
(dp2056
sI97
(dp2057
sI98
(dp2058
sI99
(dp2059
ssI53
(dp2060
I2
g397
sI3
g433
sI4
g474
sI6
g539
sI7
g574
sI8
g610
sI9
g643
sI10
g677
sI11
g712
sI13
g780
sI14
g807
sI16
g862
sI20
g980
sI21
g1014
sI22
g1041
sI23
g1067
sI24
g1098
sI26
g1150
sI27
g1176
sI28
g1208
sI29
g1223
sI31
g1259
sI32
g1277
sI33
g1295
sI34
g1315
sI35
g1333
sI38
g1377
sI40
g1403
sI41
g1460
sI42
g1514
sI43
g1570
sI44
g1623
sI45
g1677
sI46
g1732
sI47
g1781
sI48
g1828
sI49
g1876
sI50
g1923
sI51
g1969
sI52
g2014
sI54
(dp2061
sI55
(dp2062
sI56
(dp2063
sI57
(dp2064
sI58
(dp2065
sI59
(dp2066
sI60
(dp2067
sI61
(dp2068
sI62
(dp2069
sI63
(dp2070
sI64
(dp2071
sI65
(dp2072
sI66
(dp2073
sI67
(dp2074
sI68
(dp2075
sI69
(dp2076
sI70
(dp2077
sI72
(dp2078
sI73
(dp2079
sI74
(dp2080
sI75
(dp2081
sI76
(dp2082
sI78
(dp2083
sI79
(dp2084
sI80
(dp2085
sI81
(dp2086
sI82
(dp2087
sI83
(dp2088
sI84
(dp2089
sI85
(dp2090
sI87
(dp2091
sI88
(dp2092
sI89
(dp2093
sI90
(dp2094
sI91
(dp2095
sI92
(dp2096
sI95
(dp2097
sI96
(dp2098
sI97
(dp2099
sI98
(dp2100
sI232
(dp2101
ssI54
(dp2102
I0
g325
sI1
g362
sI2
g398
sI4
g475
sI6
g540
sI7
g575
sI8
g611
sI10
g678
sI11
g713
sI14
g808
sI17
g891
sI18
g919
sI19
g952
sI20
g981
sI21
g1015
sI23
g1068
sI24
g1099
sI25
g1116
sI27
g1177
sI28
g1202
sI31
g1260
sI33
g1296
sI35
g1334
sI36
g1349
sI38
g1378
sI39
g1389
sI40
g1404
sI41
g1461
sI42
g1515
sI43
g1571
sI44
g1624
sI45
g1678
sI46
g1733
sI47
g1782
sI48
g1829
sI49
g1877
sI50
g1924
sI51
g1970
sI52
g2015
sI53
g2061
sI55
(dp2103
sI56
(dp2104
sI57
(dp2105
sI58
(dp2106
sI59
(dp2107
sI60
(dp2108
sI61
(dp2109
sI62
(dp2110
sI63
(dp2111
sI64
(dp2112
sI65
(dp2113
sI66
(dp2114
sI67
(dp2115
sI68
(dp2116
sI69
(dp2117
sI70
(dp2118
sI71
(dp2119
sI73
(dp2120
sI74
(dp2121
sI75
(dp2122
sI76
(dp2123
sI77
(dp2124
sI78
(dp2125
sI79
(dp2126
sI80
(dp2127
sI81
(dp2128
sI82
(dp2129
sI83
(dp2130
sI84
(dp2131
sI86
(dp2132
sI87
(dp2133
sI89
(dp2134
sI90
(dp2135
sI92
(dp2136
sI93
(dp2137
sI94
(dp2138
sI96
(dp2139
sI97
(dp2140
sI99
(dp2141
ssI55
(dp2142
I257
(dp2143
sI1
g363
sI3
g434
sI6
g541
sI7
g576
sI8
g612
sI9
g644
sI10
g679
sI13
g781
sI14
g809
sI16
g863
sI17
g892
sI18
g920
sI19
g953
sI20
g982
sI21
g1016
sI22
g1042
sI23
g1069
sI25
g1117
sI26
g1151
sI27
g1178
sI31
g1261
sI32
g1278
sI33
g1297
sI34
g1316
sI36
g1350
sI40
g1405
sI41
g1462
sI42
g1516
sI43
g1572
sI44
g1625
sI45
g1679
sI46
g1734
sI47
g1783
sI48
g1830
sI49
g1878
sI50
g1925
sI51
g1971
sI52
g2016
sI53
g2062
sI54
g2103
sI56
(dp2144
sI57
(dp2145
sI58
(dp2146
sI59
(dp2147
sI60
(dp2148
sI61
(dp2149
sI62
(dp2150
sI63
(dp2151
sI64
(dp2152
sI65
(dp2153
sI66
(dp2154
sI67
(dp2155
sI68
(dp2156
sI69
(dp2157
sI70
(dp2158
sI71
(dp2159
sI72
(dp2160
sI73
(dp2161
sI74
(dp2162
sI75
(dp2163
sI76
(dp2164
sI77
(dp2165
sI78
(dp2166
sI79
(dp2167
sI80
(dp2168
sI82
(dp2169
sI83
(dp2170
sI84
(dp2171
sI85
(dp2172
sI86
(dp2173
sI87
(dp2174
sI88
(dp2175
sI89
(dp2176
sI90
(dp2177
sI91
(dp2178
sI92
(dp2179
sI93
(dp2180
sI94
(dp2181
sI95
(dp2182
sI96
(dp2183
sI97
(dp2184
sI99
(dp2185
ssI56
(dp2186
I0
g326
sI1
g364
sI2
g399
sI5
g505
sI6
g542
sI7
g577
sI9
g645
sI10
g680
sI11
g714
sI12
g748
sI15
g845
sI16
g864
sI17
g893
sI22
g1043
sI23
g1070
sI25
g1118
sI26
g1152
sI28
g1204
sI29
g1224
sI30
g1241
sI31
g1262
sI33
g1298
sI34
g1317
sI36
g1351
sI40
g1406
sI41
g1463
sI42
g1517
sI43
g1573
sI44
g1626
sI45
g1680
sI46
g1735
sI47
g1784
sI48
g1831
sI49
g1879
sI50
g1926
sI51
g1972
sI52
g2017
sI53
g2063
sI54
g2104
sI55
g2144
sI57
(dp2187
sI58
(dp2188
sI59
(dp2189
sI60
(dp2190
sI61
(dp2191
sI62
(dp2192
sI63
(dp2193
sI64
(dp2194
sI65
(dp2195
sI66
(dp2196
sI67
(dp2197
sI68
(dp2198
sI69
(dp2199
sI70
(dp2200
sI71
(dp2201
sI72
(dp2202
sI73
(dp2203
sI74
(dp2204
sI75
(dp2205
sI76
(dp2206
sI77
(dp2207
sI78
(dp2208
sI80
(dp2209
sI82
(dp2210
sI83
(dp2211
sI84
(dp2212
sI85
(dp2213
sI86
(dp2214
sI87
(dp2215
sI88
(dp2216
sI89
(dp2217
sI90
(dp2218
sI92
(dp2219
sI93
(dp2220
sI94
(dp2221
sI95
(dp2222
sI96
(dp2223
sI97
(dp2224
sI98
(dp2225
sI99
(dp2226
ssI57
(dp2227
I1
g365
sI2
g400
sI3
g435
sI5
g506
sI6
g543
sI7
g578
sI8
g613
sI10
g681
sI11
g715
sI12
g749
sI14
g810
sI15
g846
sI19
g954
sI20
g983
sI21
g1017
sI22
g1044
sI23
g1071
sI25
g1119
sI28
g1205
sI32
g1279
sI33
g1299
sI34
g1318
sI35
g1335
sI40
g1407
sI41
g1464
sI42
g1518
sI43
g1574
sI44
g1627
sI45
g1681
sI46
g1736
sI47
g1785
sI48
g1832
sI49
g1880
sI50
g1927
sI51
g1973
sI52
g2018
sI53
g2064
sI54
g2105
sI55
g2145
sI56
g2187
sI58
(dp2228
sI59
(dp2229
sI60
(dp2230
sI61
(dp2231
sI62
(dp2232
sI63
(dp2233
sI64
(dp2234
sI65
(dp2235
sI66
(dp2236
sI67
(dp2237
sI68
(dp2238
sI69
(dp2239
sI70
(dp2240
sI71
(dp2241
sI72
(dp2242
sI73
(dp2243
sI74
(dp2244
sI75
(dp2245
sI76
(dp2246
sI77
(dp2247
sI78
(dp2248
sI79
(dp2249
sI81
(dp2250
sI83
(dp2251
sI84
(dp2252
sI85
(dp2253
sI86
(dp2254
sI87
(dp2255
sI89
(dp2256
sI90
(dp2257
sI91
(dp2258
sI93
(dp2259
sI95
(dp2260
sI96
(dp2261
sI97
(dp2262
sI98
(dp2263
sI99
(dp2264
ssI58
(dp2265
I0
g327
sI1
g366
sI2
g401
sI3
g436
sI5
g507
sI6
g544
sI7
g579
sI9
g646
sI10
g682
sI11
g716
sI14
g811
sI16
g865
sI17
g894
sI22
g1045
sI25
g1120
sI27
g1179
sI29
g1225
sI30
g1242
sI32
g1280
sI35
g1336
sI36
g1352
sI37
g1364
sI40
g1408
sI41
g1465
sI42
g1519
sI43
g1575
sI44
g1628
sI45
g1682
sI46
g1737
sI47
g1786
sI48
g1833
sI49
g1881
sI50
g1928
sI51
g1974
sI52
g2019
sI53
g2065
sI54
g2106
sI55
g2146
sI56
g2188
sI57
g2228
sI59
(dp2266
sI60
(dp2267
sI61
(dp2268
sI62
(dp2269
sI63
(dp2270
sI64
(dp2271
sI65
(dp2272
sI66
(dp2273
sI67
(dp2274
sI68
(dp2275
sI69
(dp2276
sI70
(dp2277
sI72
(dp2278
sI73
(dp2279
sI75
(dp2280
sI76
(dp2281
sI77
(dp2282
sI78
(dp2283
sI80
(dp2284
sI81
(dp2285
sI82
(dp2286
sI83
(dp2287
sI84
(dp2288
sI85
(dp2289
sI86
(dp2290
sI87
(dp2291
sI88
(dp2292
sI89
(dp2293
sI90
(dp2294
sI91
(dp2295
sI92
(dp2296
sI94
(dp2297
sI95
(dp2298
sI96
(dp2299
sI97
(dp2300
sI99
(dp2301
ssI59
(dp2302
I0
g328
sI1
g367
sI2
g402
sI3
g437
sI10
g683
sI11
g717
sI12
g750
sI13
g782
sI15
g847
sI16
g866
sI17
g895
sI19
g955
sI20
g984
sI22
g1046
sI23
g1072
sI24
g1101
sI25
g1121
sI27
g1180
sI29
g1226
sI30
g1243
sI31
g1265
sI40
g1409
sI41
g1466
sI42
g1520
sI43
g1576
sI44
g1629
sI45
g1683
sI46
g1738
sI47
g1787
sI48
g1834
sI49
g1882
sI50
g1929
sI51
g1975
sI52
g2020
sI53
g2066
sI54
g2107
sI55
g2147
sI56
g2189
sI57
g2229
sI58
g2266
sI60
(dp2303
sI61
(dp2304
sI62
(dp2305
sI63
(dp2306
sI64
(dp2307
sI65
(dp2308
sI66
(dp2309
sI67
(dp2310
sI68
(dp2311
sI69
(dp2312
sI70
(dp2313
sI71
(dp2314
sI72
(dp2315
sI73
(dp2316
sI74
(dp2317
sI75
(dp2318
sI76
(dp2319
sI77
(dp2320
sI78
(dp2321
sI80
(dp2322
sI81
(dp2323
sI82
(dp2324
sI84
(dp2325
sI85
(dp2326
sI86
(dp2327
sI87
(dp2328
sI88
(dp2329
sI89
(dp2330
sI90
(dp2331
sI91
(dp2332
sI92
(dp2333
sI94
(dp2334
sI97
(dp2335
sI235
(dp2336
ssI60
(dp2337
I0
g329
sI1
g368
sI3
g438
sI4
g476
sI8
g614
sI9
g647
sI11
g718
sI15
g848
sI16
g867
sI17
g896
sI18
g921
sI21
g1018
sI25
g1122
sI26
g1153
sI28
g1206
sI29
g1227
sI30
g1244
sI31
g1266
sI36
g1353
sI37
g1365
sI40
g1410
sI41
g1467
sI42
g1521
sI43
g1577
sI44
g1630
sI45
g1684
sI46
g1739
sI47
g1788
sI48
g1835
sI49
g1883
sI50
g1930
sI51
g1976
sI52
g2021
sI53
g2067
sI54
g2108
sI55
g2148
sI56
g2190
sI57
g2230
sI58
g2267
sI59
g2303
sI61
(dp2338
sI62
(dp2339
sI63
(dp2340
sI64
(dp2341
sI65
(dp2342
sI66
(dp2343
sI67
(dp2344
sI68
(dp2345
sI69
(dp2346
sI70
(dp2347
sI71
(dp2348
sI72
(dp2349
sI73
(dp2350
sI74
(dp2351
sI75
(dp2352
sI76
(dp2353
sI79
(dp2354
sI80
(dp2355
sI81
(dp2356
sI82
(dp2357
sI85
(dp2358
sI86
(dp2359
sI88
(dp2360
sI89
(dp2361
sI92
(dp2362
sI93
(dp2363
sI96
(dp2364
ssI61
(dp2365
I1
g369
sI2
g403
sI6
g545
sI7
g580
sI8
g615
sI11
g719
sI12
g751
sI13
g783
sI14
g812
sI15
g849
sI22
g1047
sI23
g1073
sI24
g1102
sI25
g1123
sI26
g1154
sI27
g1181
sI28
g1207
sI30
g1245
sI33
g1300
sI40
g1411
sI41
g1468
sI42
g1522
sI43
g1578
sI44
g1631
sI45
g1685
sI46
g1740
sI47
g1789
sI48
g1836
sI49
g1884
sI50
g1931
sI51
g1977
sI52
g2022
sI53
g2068
sI54
g2109
sI55
g2149
sI56
g2191
sI57
g2231
sI58
g2268
sI59
g2304
sI60
g2338
sI62
(dp2366
sI63
(dp2367
sI64
(dp2368
sI65
(dp2369
sI66
(dp2370
sI67
(dp2371
sI68
(dp2372
sI69
(dp2373
sI70
(dp2374
sI71
(dp2375
sI72
(dp2376
sI73
(dp2377
sI74
(dp2378
sI75
(dp2379
sI76
(dp2380
sI77
(dp2381
sI78
(dp2382
sI80
(dp2383
sI83
(dp2384
sI84
(dp2385
sI87
(dp2386
sI88
(dp2387
sI89
(dp2388
sI91
(dp2389
sI93
(dp2390
sI94
(dp2391
sI95
(dp2392
sI96
(dp2393
sI99
(dp2394
ssI62
(dp2395
I0
g330
sI1
g370
sI2
g404
sI3
g439
sI6
g546
sI7
g581
sI8
g616
sI9
g648
sI11
g720
sI12
g752
sI18
g922
sI20
g985
sI22
g1048
sI23
g1074
sI25
g1124
sI26
g1155
sI27
g1182
sI31
g1267
sI40
g1412
sI41
g1469
sI42
g1523
sI43
g1579
sI44
g1632
sI45
g1686
sI46
g1741
sI47
g1790
sI48
g1837
sI49
g1885
sI50
g1932
sI51
g1978
sI52
g2023
sI53
g2069
sI54
g2110
sI55
g2150
sI56
g2192
sI57
g2232
sI58
g2269
sI59
g2305
sI60
g2339
sI61
g2366
sI63
(dp2396
sI64
(dp2397
sI65
(dp2398
sI66
(dp2399
sI67
(dp2400
sI68
(dp2401
sI69
(dp2402
sI71
(dp2403
sI72
(dp2404
sI73
(dp2405
sI75
(dp2406
sI76
(dp2407
sI78
(dp2408
sI79
(dp2409
sI80
(dp2410
sI82
(dp2411
sI83
(dp2412
sI84
(dp2413
sI88
(dp2414
sI90
(dp2415
sI91
(dp2416
sI93
(dp2417
sI95
(dp2418
sI96
(dp2419
ssI63
(dp2420
I0
g331
sI1
g371
sI2
g405
sI3
g440
sI4
g477
sI6
g547
sI7
g582
sI8
g617
sI10
g684
sI11
g721
sI13
g784
sI14
g813
sI17
g897
sI22
g1049
sI23
g1075
sI25
g1125
sI26
g1156
sI40
g1413
sI41
g1470
sI42
g1524
sI43
g1580
sI44
g1633
sI45
g1687
sI46
g1742
sI47
g1791
sI48
g1838
sI49
g1886
sI50
g1933
sI51
g1979
sI52
g2024
sI53
g2070
sI54
g2111
sI55
g2151
sI56
g2193
sI57
g2233
sI58
g2270
sI59
g2306
sI60
g2340
sI61
g2367
sI62
g2396
sI64
(dp2421
sI65
(dp2422
sI66
(dp2423
sI67
(dp2424
sI68
(dp2425
sI69
(dp2426
sI70
(dp2427
sI71
(dp2428
sI72
(dp2429
sI73
(dp2430
sI74
(dp2431
sI75
(dp2432
sI76
(dp2433
sI77
(dp2434
sI78
(dp2435
sI79
(dp2436
sI80
(dp2437
sI81
(dp2438
sI82
(dp2439
sI83
(dp2440
sI85
(dp2441
sI86
(dp2442
sI185
(dp2443
sI88
(dp2444
sI89
(dp2445
sI92
(dp2446
sI93
(dp2447
sI94
(dp2448
sI95
(dp2449
sI96
(dp2450
sI98
(dp2451
ssI64
(dp2452
I3
g441
sI4
g478
sI5
g508
sI6
g548
sI7
g583
sI10
g685
sI12
g753
sI14
g814
sI15
g830
sI17
g898
sI18
g923
sI22
g1050
sI25
g1126
sI26
g1157
sI28
g1188
sI33
g1282
sI40
g1414
sI41
g1471
sI42
g1525
sI43
g1581
sI44
g1634
sI45
g1688
sI46
g1743
sI47
g1792
sI48
g1839
sI49
g1887
sI50
g1934
sI51
g1980
sI52
g2025
sI53
g2071
sI54
g2112
sI55
g2152
sI56
g2194
sI57
g2234
sI58
g2271
sI59
g2307
sI60
g2341
sI61
g2368
sI62
g2397
sI63
g2421
sI65
(dp2453
sI66
(dp2454
sI67
(dp2455
sI68
(dp2456
sI69
(dp2457
sI70
(dp2458
sI71
(dp2459
sI72
(dp2460
sI73
(dp2461
sI74
(dp2462
sI75
(dp2463
sI77
(dp2464
sI78
(dp2465
sI80
(dp2466
sI82
(dp2467
sI83
(dp2468
sI84
(dp2469
sI85
(dp2470
sI86
(dp2471
sI87
(dp2472
sI89
(dp2473
sI92
(dp2474
sI94
(dp2475
sI95
(dp2476
sI98
(dp2477
sI99
(dp2478
sI116
(dp2479
ssI65
(dp2480
I2
g406
sI3
g442
sI4
g479
sI5
g509
sI6
g549
sI7
g584
sI8
g618
sI11
g722
sI13
g785
sI14
g815
sI16
g868
sI17
g899
sI18
g924
sI19
g956
sI22
g1051
sI40
g1415
sI41
g1472
sI42
g1526
sI43
g1582
sI44
g1635
sI45
g1689
sI46
g1744
sI47
g1793
sI48
g1840
sI49
g1888
sI50
g1935
sI51
g1981
sI52
g2026
sI53
g2072
sI54
g2113
sI55
g2153
sI56
g2195
sI57
g2235
sI58
g2272
sI59
g2308
sI60
g2342
sI61
g2369
sI62
g2398
sI63
g2422
sI64
g2453
sI66
(dp2481
sI67
(dp2482
sI68
(dp2483
sI69
(dp2484
sI70
(dp2485
sI71
(dp2486
sI72
(dp2487
sI73
(dp2488
sI74
(dp2489
sI75
(dp2490
sI76
(dp2491
sI77
(dp2492
sI78
(dp2493
sI79
(dp2494
sI80
(dp2495
sI81
(dp2496
sI82
(dp2497
sI83
(dp2498
sI84
(dp2499
sI85
(dp2500
sI86
(dp2501
sI88
(dp2502
sI89
(dp2503
sI91
(dp2504
sI92
(dp2505
sI94
(dp2506
sI95
(dp2507
sI99
(dp2508
ssI66
(dp2509
I0
g332
sI1
g372
sI3
g443
sI4
g480
sI7
g585
sI8
g619
sI10
g686
sI11
g723
sI14
g816
sI18
g925
sI20
g986
sI21
g1019
sI23
g1076
sI25
g1127
sI155
(dp2510
sI40
g1416
sI41
g1473
sI42
g1527
sI43
g1583
sI44
g1636
sI45
g1690
sI46
g1745
sI47
g1794
sI48
g1841
sI49
g1889
sI50
g1936
sI51
g1982
sI52
g2027
sI53
g2073
sI54
g2114
sI55
g2154
sI56
g2196
sI57
g2236
sI58
g2273
sI59
g2309
sI60
g2343
sI61
g2370
sI62
g2399
sI63
g2423
sI64
g2454
sI65
g2481
sI67
(dp2511
sI68
(dp2512
sI69
(dp2513
sI70
(dp2514
sI71
(dp2515
sI72
(dp2516
sI73
(dp2517
sI74
(dp2518
sI75
(dp2519
sI76
(dp2520
sI77
(dp2521
sI78
(dp2522
sI79
(dp2523
sI80
(dp2524
sI81
(dp2525
sI82
(dp2526
sI83
(dp2527
sI84
(dp2528
sI85
(dp2529
sI88
(dp2530
sI90
(dp2531
sI91
(dp2532
sI93
(dp2533
sI94
(dp2534
sI95
(dp2535
sI96
(dp2536
sI97
(dp2537
sI99
(dp2538
ssI67
(dp2539
I0
g333
sI1
g373
sI2
g407
sI3
g444
sI5
g510
sI8
g620
sI9
g649
sI10
g687
sI11
g724
sI16
g869
sI19
g957
sI20
g987
sI23
g1077
sI40
g1417
sI41
g1474
sI42
g1528
sI43
g1584
sI44
g1637
sI45
g1691
sI46
g1746
sI47
g1795
sI48
g1842
sI49
g1890
sI50
g1937
sI51
g1983
sI52
g2028
sI53
g2074
sI54
g2115
sI55
g2155
sI56
g2197
sI57
g2237
sI58
g2274
sI59
g2310
sI60
g2344
sI61
g2371
sI62
g2400
sI63
g2424
sI64
g2455
sI65
g2482
sI66
g2511
sI68
(dp2540
sI69
(dp2541
sI70
(dp2542
sI71
(dp2543
sI72
(dp2544
sI73
(dp2545
sI74
(dp2546
sI75
(dp2547
sI76
(dp2548
sI78
(dp2549
sI79
(dp2550
sI81
(dp2551
sI83
(dp2552
sI85
(dp2553
sI86
(dp2554
sI87
(dp2555
sI88
(dp2556
sI90
(dp2557
sI92
(dp2558
sI93
(dp2559
sI94
(dp2560
sI96
(dp2561
ssI68
(dp2562
I0
g334
sI2
g408
sI3
g445
sI263
(dp2563
sI8
g621
sI10
g688
sI11
g725
sI14
g817
sI16
g870
sI19
g958
sI27
g1183
sI28
g1189
sI29
g1210
sI40
g1418
sI41
g1475
sI42
g1529
sI43
g1585
sI44
g1638
sI45
g1692
sI46
g1747
sI47
g1796
sI48
g1843
sI49
g1891
sI50
g1938
sI51
g1984
sI52
g2029
sI53
g2075
sI54
g2116
sI55
g2156
sI56
g2198
sI57
g2238
sI58
g2275
sI59
g2311
sI60
g2345
sI61
g2372
sI62
g2401
sI63
g2425
sI64
g2456
sI65
g2483
sI66
g2512
sI67
g2540
sI69
(dp2564
sI70
(dp2565
sI71
(dp2566
sI72
(dp2567
sI74
(dp2568
sI75
(dp2569
sI76
(dp2570
sI77
(dp2571
sI78
(dp2572
sI80
(dp2573
sI81
(dp2574
sI83
(dp2575
sI84
(dp2576
sI85
(dp2577
sI86
(dp2578
sI87
(dp2579
sI88
(dp2580
sI93
(dp2581
sI94
(dp2582
sI95
(dp2583
sI96
(dp2584
sI97
(dp2585
sI98
(dp2586
ssI69
(dp2587
I0
g335
sI2
g409
sI3
g446
sI10
g689
sI13
g786
sI14
g818
sI15
g831
sI17
g900
sI20
g988
sI22
g1052
sI23
g1078
sI40
g1419
sI41
g1476
sI42
g1530
sI43
g1586
sI44
g1639
sI45
g1693
sI46
g1748
sI47
g1797
sI48
g1844
sI49
g1892
sI50
g1939
sI51
g1985
sI52
g2030
sI53
g2076
sI54
g2117
sI55
g2157
sI56
g2199
sI57
g2239
sI58
g2276
sI59
g2312
sI60
g2346
sI61
g2373
sI62
g2402
sI63
g2426
sI64
g2457
sI65
g2484
sI66
g2513
sI67
g2541
sI68
g2564
sI70
(dp2588
sI71
(dp2589
sI72
(dp2590
sI73
(dp2591
sI75
(dp2592
sI76
(dp2593
sI77
(dp2594
sI78
(dp2595
sI79
(dp2596
sI83
(dp2597
sI85
(dp2598
sI86
(dp2599
sI87
(dp2600
sI89
(dp2601
sI91
(dp2602
sI92
(dp2603
sI95
(dp2604
sI103
(dp2605
ssI70
(dp2606
I3
g447
sI5
g511
sI10
g690
sI11
g726
sI13
g787
sI14
g819
sI19
g959
sI20
g989
sI21
g1020
sI29
g1211
sI30
g1230
sI40
g1420
sI41
g1477
sI42
g1531
sI43
g1587
sI44
g1640
sI45
g1694
sI46
g1749
sI47
g1798
sI48
g1845
sI49
g1893
sI50
g1940
sI51
g1986
sI52
g2031
sI53
g2077
sI54
g2118
sI55
g2158
sI56
g2200
sI57
g2240
sI58
g2277
sI59
g2313
sI60
g2347
sI61
g2374
sI63
g2427
sI64
g2458
sI65
g2485
sI66
g2514
sI67
g2542
sI68
g2565
sI69
g2588
sI71
(dp2607
sI73
(dp2608
sI74
(dp2609
sI75
(dp2610
sI77
(dp2611
sI78
(dp2612
sI79
(dp2613
sI86
(dp2614
sI90
(dp2615
sI93
(dp2616
sI95
(dp2617
sI99
(dp2618
ssI71
(dp2619
I0
g336
sI4
g481
sI5
g512
sI10
g691
sI11
g727
sI12
g754
sI15
g832
sI18
g926
sI21
g1021
sI23
g1079
sI25
g1128
sI40
g1421
sI41
g1478
sI42
g1532
sI43
g1588
sI44
g1641
sI45
g1695
sI46
g1750
sI47
g1799
sI48
g1846
sI49
g1894
sI50
g1941
sI51
g1987
sI52
g2032
sI54
g2119
sI55
g2159
sI56
g2201
sI57
g2241
sI59
g2314
sI60
g2348
sI61
g2375
sI62
g2403
sI63
g2428
sI64
g2459
sI65
g2486
sI66
g2515
sI67
g2543
sI68
g2566
sI69
g2589
sI70
g2607
sI72
(dp2620
sI73
(dp2621
sI74
(dp2622
sI75
(dp2623
sI77
(dp2624
sI78
(dp2625
sI79
(dp2626
sI80
(dp2627
sI81
(dp2628
sI82
(dp2629
sI83
(dp2630
sI84
(dp2631
sI88
(dp2632
sI89
(dp2633
sI90
(dp2634
sI92
(dp2635
sI93
(dp2636
sI94
(dp2637
sI95
(dp2638
sI96
(dp2639
sI99
(dp2640
ssI72
(dp2641
I0
g337
sI2
g410
sI3
g448
sI5
g513
sI6
g550
sI8
g622
sI9
g650
sI12
g755
sI13
g788
sI14
g820
sI289
(dp2642
sI40
g1422
sI41
g1479
sI42
g1533
sI43
g1589
sI44
g1642
sI45
g1696
sI46
g1751
sI47
g1800
sI48
g1847
sI49
g1895
sI50
g1942
sI51
g1988
sI52
g2033
sI53
g2078
sI55
g2160
sI56
g2202
sI57
g2242
sI58
g2278
sI59
g2315
sI60
g2349
sI61
g2376
sI62
g2404
sI63
g2429
sI64
g2460
sI65
g2487
sI66
g2516
sI67
g2544
sI68
g2567
sI69
g2590
sI71
g2620
sI73
(dp2643
sI75
(dp2644
sI76
(dp2645
sI77
(dp2646
sI78
(dp2647
sI79
(dp2648
sI80
(dp2649
sI83
(dp2650
sI84
(dp2651
sI88
(dp2652
sI91
(dp2653
sI92
(dp2654
sI93
(dp2655
sI94
(dp2656
sI95
(dp2657
sI96
(dp2658
sI99
(dp2659
ssI73
(dp2660
I0
g338
sI1
g374
sI7
g586
sI9
g651
sI11
g728
sI12
g756
sI17
g901
sI18
g927
sI40
g1423
sI41
g1480
sI42
g1534
sI43
g1590
sI44
g1643
sI45
g1697
sI46
g1752
sI47
g1801
sI48
g1848
sI49
g1896
sI50
g1943
sI51
g1989
sI52
g2034
sI53
g2079
sI54
g2120
sI55
g2161
sI56
g2203
sI57
g2243
sI58
g2279
sI59
g2316
sI60
g2350
sI61
g2377
sI62
g2405
sI63
g2430
sI64
g2461
sI65
g2488
sI66
g2517
sI67
g2545
sI69
g2591
sI70
g2608
sI71
g2621
sI72
g2643
sI74
(dp2661
sI76
(dp2662
sI78
(dp2663
sI79
(dp2664
sI81
(dp2665
sI82
(dp2666
sI84
(dp2667
sI85
(dp2668
sI86
(dp2669
sI88
(dp2670
sI91
(dp2671
sI92
(dp2672
sI93
(dp2673
sI95
(dp2674
sI96
(dp2675
sI98
(dp2676
sI115
(dp2677
ssI74
(dp2678
I2
g411
sI4
g482
sI5
g514
sI9
g652
sI11
g729
sI13
g789
sI17
g902
sI20
g990
sI22
g1053
sI23
g1080
sI26
g1159
sI40
g1424
sI41
g1481
sI42
g1535
sI43
g1591
sI44
g1644
sI45
g1698
sI46
g1753
sI47
g1802
sI48
g1849
sI49
g1897
sI51
g1990
sI52
g2035
sI53
g2080
sI54
g2121
sI55
g2162
sI56
g2204
sI57
g2244
sI59
g2317
sI60
g2351
sI61
g2378
sI63
g2431
sI64
g2462
sI65
g2489
sI66
g2518
sI67
g2546
sI68
g2568
sI70
g2609
sI71
g2622
sI73
g2661
sI75
(dp2679
sI76
(dp2680
sI77
(dp2681
sI79
(dp2682
sI83
(dp2683
sI86
(dp2684
sI87
(dp2685
sI88
(dp2686
sI89
(dp2687
sI91
(dp2688
sI92
(dp2689
sI95
(dp2690
sI97
(dp2691
ssI75
(dp2692
I0
g339
sI3
g449
sI4
g483
sI6
g551
sI10
g692
sI11
g730
sI40
g1425
sI41
g1482
sI42
g1536
sI43
g1592
sI44
g1645
sI45
g1699
sI46
g1754
sI47
g1803
sI48
g1850
sI49
g1898
sI50
g1944
sI51
g1991
sI52
g2036
sI53
g2081
sI54
g2122
sI55
g2163
sI56
g2205
sI57
g2245
sI58
g2280
sI59
g2318
sI60
g2352
sI61
g2379
sI62
g2406
sI63
g2432
sI64
g2463
sI65
g2490
sI66
g2519
sI67
g2547
sI68
g2569
sI69
g2592
sI70
g2610
sI71
g2623
sI72
g2644
sI74
g2679
sI79
(dp2693
sI80
(dp2694
sI81
(dp2695
sI83
(dp2696
sI88
(dp2697
sI92
(dp2698
sI95
(dp2699
ssI76
(dp2700
I0
g340
sI1
g375
sI3
g450
sI6
g552
sI8
g623
sI9
g653
sI11
g731
sI13
g790
sI40
g1426
sI41
g1483
sI42
g1537
sI43
g1593
sI44
g1646
sI45
g1700
sI46
g1755
sI47
g1804
sI48
g1851
sI49
g1899
sI50
g1945
sI51
g1992
sI52
g2037
sI53
g2082
sI54
g2123
sI55
g2164
sI56
g2206
sI57
g2246
sI58
g2281
sI59
g2319
sI60
g2353
sI61
g2380
sI62
g2407
sI63
g2433
sI65
g2491
sI66
g2520
sI67
g2548
sI68
g2570
sI69
g2593
sI72
g2645
sI73
g2662
sI74
g2680
sI77
(dp2701
sI78
(dp2702
sI79
(dp2703
sI81
(dp2704
sI83
(dp2705
sI86
(dp2706
sI88
(dp2707
sI89
(dp2708
sI92
(dp2709
sI95
(dp2710
sI97
(dp2711
sI98
(dp2712
ssI77
(dp2713
I0
g341
sI1
g376
sI12
g757
sI14
g821
sI17
g903
sI18
g928
sI19
g960
sI20
g991
sI26
g1160
sI27
g1184
sI28
g1194
sI31
g1253
sI42
g1538
sI44
g1647
sI45
g1701
sI46
g1756
sI47
g1805
sI48
g1852
sI49
g1900
sI50
g1946
sI51
g1993
sI52
g2038
sI54
g2124
sI55
g2165
sI56
g2207
sI57
g2247
sI58
g2282
sI59
g2320
sI61
g2381
sI63
g2434
sI64
g2464
sI65
g2492
sI66
g2521
sI68
g2571
sI69
g2594
sI70
g2611
sI71
g2624
sI72
g2646
sI74
g2681
sI76
g2701
sI80
(dp2714
sI84
(dp2715
sI86
(dp2716
sI87
(dp2717
sI88
(dp2718
sI89
(dp2719
sI90
(dp2720
sI92
(dp2721
sI93
(dp2722
sI94
(dp2723
sI96
(dp2724
sI97
(dp2725
sI99
(dp2726
ssI78
(dp2727
I0
g342
sI4
g484
sI6
g553
sI7
g588
sI10
g693
sI14
g822
sI40
g1427
sI41
g1484
sI42
g1539
sI43
g1594
sI44
g1648
sI45
g1702
sI46
g1757
sI47
g1806
sI48
g1853
sI49
g1901
sI50
g1947
sI51
g1994
sI52
g2039
sI53
g2083
sI54
g2125
sI55
g2166
sI56
g2208
sI57
g2248
sI58
g2283
sI59
g2321
sI61
g2382
sI62
g2408
sI63
g2435
sI64
g2465
sI65
g2493
sI66
g2522
sI67
g2549
sI68
g2572
sI69
g2595
sI70
g2612
sI71
g2625
sI72
g2647
sI73
g2663
sI76
g2702
sI79
(dp2728
sI80
(dp2729
sI83
(dp2730
sI84
(dp2731
sI87
(dp2732
sI95
(dp2733
sI96
(dp2734
ssI79
(dp2735
I3
g451
sI4
g485
sI5
g515
sI6
g554
sI14
g823
sI18
g929
sI20
g992
sI21
g1022
sI40
g1428
sI41
g1485
sI42
g1540
sI43
g1595
sI44
g1649
sI45
g1703
sI46
g1758
sI47
g1807
sI48
g1854
sI49
g1902
sI50
g1948
sI51
g1995
sI52
g2040
sI53
g2084
sI54
g2126
sI55
g2167
sI57
g2249
sI60
g2354
sI62
g2409
sI63
g2436
sI65
g2494
sI66
g2523
sI67
g2550
sI69
g2596
sI70
g2613
sI71
g2626
sI72
g2648
sI73
g2664
sI74
g2682
sI75
g2693
sI76
g2703
sI78
g2728
sI81
(dp2736
sI83
(dp2737
sI91
(dp2738
sI98
(dp2739
ssI80
(dp2740
I1
g377
sI2
g412
sI3
g452
sI4
g486
sI8
g624
sI12
g758
sI19
g961
sI24
g1086
sI25
g1129
sI40
g1429
sI41
g1486
sI42
g1541
sI43
g1596
sI44
g1650
sI45
g1704
sI46
g1759
sI47
g1808
sI48
g1855
sI49
g1903
sI50
g1949
sI52
g2041
sI53
g2085
sI54
g2127
sI55
g2168
sI56
g2209
sI58
g2284
sI59
g2322
sI60
g2355
sI61
g2383
sI62
g2410
sI63
g2437
sI64
g2466
sI65
g2495
sI66
g2524
sI68
g2573
sI71
g2627
sI72
g2649
sI75
g2694
sI77
g2714
sI78
g2729
sI81
(dp2741
sI83
(dp2742
sI84
(dp2743
sI87
(dp2744
sI90
(dp2745
sI91
(dp2746
sI94
(dp2747
sI96
(dp2748
sI98
(dp2749
sI99
(dp2750
ssI81
(dp2751
I0
g343
sI2
g413
sI3
g453
sI4
g487
sI5
g516
sI6
g555
sI7
g589
sI8
g625
sI11
g732
sI19
g962
sI20
g993
sI24
g1088
sI34
g1303
sI40
g1430
sI42
g1542
sI43
g1597
sI44
g1651
sI45
g1705
sI47
g1809
sI48
g1856
sI49
g1904
sI51
g1996
sI52
g2042
sI53
g2086
sI54
g2128
sI57
g2250
sI58
g2285
sI59
g2323
sI60
g2356
sI63
g2438
sI65
g2496
sI66
g2525
sI67
g2551
sI68
g2574
sI71
g2628
sI73
g2665
sI75
g2695
sI76
g2704
sI79
g2736
sI80
g2741
sI83
(dp2752
sI84
(dp2753
sI85
(dp2754
sI91
(dp2755
sI93
(dp2756
sI96
(dp2757
sI97
(dp2758
sI99
(dp2759
ssI82
(dp2760
I0
g344
sI6
g556
sI7
g590
sI14
g824
sI16
g871
sI18
g930
sI22
g1054
sI27
g1185
sI28
g1201
sI30
g1229
sI31
g1247
sI36
g1339
sI40
g1431
sI41
g1487
sI42
g1543
sI43
g1598
sI44
g1652
sI45
g1706
sI46
g1760
sI48
g1857
sI49
g1905
sI50
g1950
sI51
g1997
sI52
g2043
sI53
g2087
sI54
g2129
sI55
g2169
sI56
g2210
sI58
g2286
sI59
g2324
sI60
g2357
sI62
g2411
sI63
g2439
sI64
g2467
sI65
g2497
sI66
g2526
sI71
g2629
sI73
g2666
sI84
(dp2761
sI85
(dp2762
sI90
(dp2763
sI93
(dp2764
sI94
(dp2765
sI96
(dp2766
sI97
(dp2767
ssI83
(dp2768
I2
g414
sI3
g454
sI5
g517
sI6
g557
sI40
g1432
sI41
g1488
sI42
g1544
sI43
g1599
sI44
g1653
sI45
g1707
sI46
g1761
sI47
g1810
sI48
g1858
sI50
g1951
sI51
g1998
sI52
g2044
sI53
g2088
sI54
g2130
sI55
g2170
sI56
g2211
sI57
g2251
sI58
g2287
sI61
g2384
sI62
g2412
sI63
g2440
sI64
g2468
sI65
g2498
sI66
g2527
sI67
g2552
sI68
g2575
sI69
g2597
sI71
g2630
sI72
g2650
sI74
g2683
sI75
g2696
sI76
g2705
sI78
g2730
sI79
g2737
sI80
g2742
sI81
g2752
sI86
(dp2769
sI87
(dp2770
sI98
(dp2771
sI99
(dp2772
ssI84
(dp2773
I6
g558
sI7
g591
sI8
g626
sI10
g694
sI11
g733
sI12
g759
sI18
g931
sI40
g1433
sI41
g1489
sI42
g1545
sI43
g1600
sI44
g1654
sI45
g1708
sI46
g1762
sI47
g1811
sI48
g1859
sI49
g1906
sI51
g1999
sI52
g2045
sI53
g2089
sI54
g2131
sI55
g2171
sI56
g2212
sI57
g2252
sI58
g2288
sI59
g2325
sI61
g2385
sI62
g2413
sI64
g2469
sI65
g2499
sI66
g2528
sI68
g2576
sI71
g2631
sI72
g2651
sI73
g2667
sI77
g2715
sI78
g2731
sI80
g2743
sI81
g2753
sI82
g2761
sI91
(dp2774
sI94
(dp2775
sI252
(dp2776
ssI85
(dp2777
I3
g455
sI4
g488
sI6
g559
sI7
g592
sI8
g627
sI10
g695
sI11
g734
sI12
g760
sI14
g825
sI16
g872
sI20
g994
sI21
g1023
sI40
g1434
sI41
g1490
sI42
g1546
sI43
g1601
sI44
g1655
sI45
g1709
sI46
g1763
sI48
g1860
sI49
g1907
sI50
g1952
sI52
g2046
sI53
g2090
sI55
g2172
sI56
g2213
sI57
g2253
sI58
g2289
sI59
g2326
sI60
g2358
sI63
g2441
sI64
g2470
sI65
g2500
sI66
g2529
sI67
g2553
sI68
g2577
sI69
g2598
sI73
g2668
sI81
g2754
sI82
g2762
sI87
(dp2778
sI88
(dp2779
sI89
(dp2780
sI90
(dp2781
sI91
(dp2782
sI92
(dp2783
sI95
(dp2784
sI97
(dp2785
sI98
(dp2786
ssI86
(dp2787
I1
g378
sI2
g415
sI5
g518
sI6
g560
sI8
g628
sI9
g654
sI17
g904
sI21
g1024
sI134
(dp2788
sI40
g1435
sI41
g1491
sI42
g1547
sI43
g1602
sI44
g1656
sI45
g1710
sI46
g1764
sI47
g1812
sI48
g1861
sI49
g1908
sI50
g1953
sI51
g2000
sI52
g2047
sI54
g2132
sI55
g2173
sI56
g2214
sI57
g2254
sI58
g2290
sI59
g2327
sI60
g2359
sI63
g2442
sI64
g2471
sI65
g2501
sI67
g2554
sI68
g2578
sI69
g2599
sI70
g2614
sI73
g2669
sI74
g2684
sI76
g2706
sI77
g2716
sI83
g2769
sI88
(dp2789
sI89
(dp2790
sI92
(dp2791
sI96
(dp2792
sI97
(dp2793
sI98
(dp2794
ssI87
(dp2795
I2
g416
sI4
g489
sI5
g519
sI8
g629
sI14
g826
sI23
g1081
sI25
g1130
sI26
g1161
sI27
g1186
sI40
g1436
sI41
g1492
sI42
g1548
sI43
g1603
sI44
g1657
sI45
g1711
sI46
g1765
sI47
g1813
sI48
g1862
sI49
g1909
sI50
g1954
sI51
g2001
sI52
g2048
sI53
g2091
sI54
g2133
sI55
g2174
sI56
g2215
sI57
g2255
sI58
g2291
sI59
g2328
sI61
g2386
sI64
g2472
sI67
g2555
sI68
g2579
sI69
g2600
sI74
g2685
sI77
g2717
sI78
g2732
sI80
g2744
sI83
g2770
sI85
g2778
sI214
(dp2796
sI89
(dp2797
sI90
(dp2798
sI97
(dp2799
ssI88
(dp2800
I1
g379
sI9
g655
sI11
g735
sI12
g761
sI13
g791
sI20
g995
sI40
g1437
sI42
g1549
sI43
g1604
sI44
g1658
sI45
g1712
sI46
g1766
sI47
g1814
sI48
g1863
sI49
g1910
sI50
g1955
sI51
g2002
sI52
g2049
sI53
g2092
sI55
g2175
sI56
g2216
sI58
g2292
sI59
g2329
sI60
g2360
sI61
g2387
sI62
g2414
sI63
g2444
sI65
g2502
sI66
g2530
sI67
g2556
sI68
g2580
sI71
g2632
sI72
g2652
sI73
g2670
sI74
g2686
sI75
g2697
sI76
g2707
sI77
g2718
sI85
g2779
sI86
g2789
sI96
(dp2801
sI98
(dp2802
ssI89
(dp2803
I0
g345
sI2
g417
sI3
g456
sI10
g696
sI11
g736
sI14
g827
sI17
g905
sI25
g1131
sI28
g1203
sI41
g1493
sI42
g1550
sI43
g1605
sI44
g1659
sI45
g1713
sI46
g1767
sI47
g1815
sI49
g1911
sI50
g1956
sI51
g2003
sI52
g2050
sI53
g2093
sI54
g2134
sI55
g2176
sI56
g2217
sI57
g2256
sI58
g2293
sI59
g2330
sI60
g2361
sI61
g2388
sI63
g2445
sI64
g2473
sI65
g2503
sI69
g2601
sI71
g2633
sI74
g2687
sI76
g2708
sI77
g2719
sI85
g2780
sI86
g2790
sI87
g2797
sI92
(dp2804
sI97
(dp2805
sI98
(dp2806
ssI90
(dp2807
I0
g346
sI3
g457
sI4
g490
sI7
g593
sI12
g762
sI16
g873
sI20
g996
sI23
g1082
sI24
g1100
sI25
g1132
sI31
g1264
sI40
g1438
sI41
g1494
sI42
g1551
sI43
g1606
sI44
g1660
sI45
g1714
sI47
g1816
sI48
g1864
sI50
g1957
sI51
g2004
sI52
g2051
sI53
g2094
sI54
g2135
sI55
g2177
sI56
g2218
sI57
g2257
sI58
g2294
sI59
g2331
sI62
g2415
sI66
g2531
sI67
g2557
sI70
g2615
sI71
g2634
sI77
g2720
sI80
g2745
sI82
g2763
sI85
g2781
sI87
g2798
sI91
(dp2808
sI93
(dp2809
sI97
(dp2810
sI99
(dp2811
ssI91
(dp2812
I4
g491
sI5
g520
sI7
g594
sI9
g656
sI11
g737
sI12
g763
sI141
(dp2813
sI16
g874
sI20
g997
sI40
g1439
sI41
g1495
sI42
g1552
sI43
g1607
sI44
g1661
sI45
g1715
sI46
g1768
sI47
g1817
sI48
g1865
sI49
g1912
sI50
g1958
sI51
g2005
sI52
g2052
sI53
g2095
sI55
g2178
sI57
g2258
sI58
g2295
sI59
g2332
sI61
g2389
sI62
g2416
sI65
g2504
sI66
g2532
sI69
g2602
sI72
g2653
sI73
g2671
sI74
g2688
sI79
g2738
sI80
g2746
sI81
g2755
sI84
g2774
sI85
g2782
sI90
g2808
sI92
(dp2814
sI94
(dp2815
sI98
(dp2816
ssI92
(dp2817
I4
g492
sI9
g657
sI16
g875
sI17
g906
sI18
g932
sI40
g1440
sI41
g1496
sI42
g1553
sI43
g1608
sI44
g1662
sI45
g1716
sI46
g1769
sI48
g1866
sI49
g1913
sI50
g1959
sI51
g2006
sI52
g2053
sI53
g2096
sI54
g2136
sI55
g2179
sI56
g2219
sI58
g2296
sI59
g2333
sI60
g2362
sI63
g2446
sI64
g2474
sI65
g2505
sI67
g2558
sI69
g2603
sI71
g2635
sI72
g2654
sI73
g2672
sI74
g2689
sI75
g2698
sI76
g2709
sI77
g2721
sI85
g2783
sI86
g2791
sI89
g2804
sI91
g2814
sI94
(dp2818
sI97
(dp2819
sI98
(dp2820
sI99
(dp2821
ssI93
(dp2822
I0
g347
sI3
g458
sI5
g521
sI9
g658
sI13
g792
sI18
g933
sI19
g963
sI23
g1083
sI25
g1133
sI40
g1441
sI41
g1497
sI43
g1609
sI44
g1663
sI45
g1717
sI46
g1770
sI47
g1818
sI48
g1867
sI49
g1914
sI50
g1960
sI51
g2007
sI54
g2137
sI55
g2180
sI56
g2220
sI57
g2259
sI60
g2363
sI61
g2390
sI62
g2417
sI63
g2447
sI66
g2533
sI67
g2559
sI68
g2581
sI70
g2616
sI71
g2636
sI72
g2655
sI73
g2673
sI77
g2722
sI81
g2756
sI82
g2764
sI90
g2809
sI95
(dp2823
sI98
(dp2824
sI99
(dp2825
ssI94
(dp2826
I2
g418
sI5
g522
sI7
g595
sI12
g764
sI16
g876
sI17
g907
sI18
g934
sI20
g998
sI21
g1025
sI23
g1084
sI40
g1442
sI41
g1498
sI42
g1554
sI43
g1610
sI44
g1664
sI45
g1718
sI48
g1868
sI50
g1961
sI51
g2008
sI52
g2054
sI54
g2138
sI55
g2181
sI56
g2221
sI58
g2297
sI59
g2334
sI61
g2391
sI63
g2448
sI64
g2475
sI65
g2506
sI66
g2534
sI67
g2560
sI68
g2582
sI71
g2637
sI72
g2656
sI77
g2723
sI80
g2747
sI82
g2765
sI84
g2775
sI91
g2815
sI92
g2818
sI96
(dp2827
sI97
(dp2828
sI98
(dp2829
sI99
(dp2830
ssI95
(dp2831
I5
g523
sI7
g596
sI9
g659
sI11
g738
sI14
g828
sI40
g1443
sI42
g1555
sI43
g1611
sI44
g1665
sI45
g1719
sI46
g1771
sI47
g1819
sI48
g1869
sI49
g1915
sI50
g1962
sI51
g2009
sI52
g2055
sI53
g2097
sI55
g2182
sI56
g2222
sI57
g2260
sI58
g2298
sI61
g2392
sI62
g2418
sI63
g2449
sI64
g2476
sI65
g2507
sI66
g2535
sI68
g2583
sI69
g2604
sI70
g2617
sI71
g2638
sI72
g2657
sI73
g2674
sI74
g2690
sI75
g2699
sI76
g2710
sI78
g2733
sI85
g2784
sI93
g2823
ssI96
(dp2832
I0
g348
sI1
g380
sI7
g597
sI9
g660
sI40
g1444
sI41
g1499
sI42
g1556
sI43
g1612
sI44
g1666
sI45
g1720
sI47
g1820
sI48
g1870
sI49
g1916
sI50
g1963
sI51
g2010
sI52
g2056
sI53
g2098
sI54
g2139
sI55
g2183
sI56
g2223
sI57
g2261
sI58
g2299
sI60
g2364
sI61
g2393
sI62
g2419
sI63
g2450
sI66
g2536
sI67
g2561
sI68
g2584
sI71
g2639
sI72
g2658
sI73
g2675
sI77
g2724
sI78
g2734
sI80
g2748
sI81
g2757
sI82
g2766
sI86
g2792
sI88
g2801
sI94
g2827
sI191
(dp2833
ssI97
(dp2834
I1
g381
sI2
g419
sI3
g459
sI5
g524
sI12
g765
sI16
g877
sI18
g935
sI25
g1134
sI40
g1445
sI41
g1500
sI42
g1557
sI44
g1667
sI45
g1721
sI46
g1772
sI47
g1821
sI49
g1917
sI50
g1964
sI51
g2011
sI52
g2057
sI53
g2099
sI54
g2140
sI55
g2184
sI56
g2224
sI57
g2262
sI58
g2300
sI59
g2335
sI66
g2537
sI68
g2585
sI74
g2691
sI76
g2711
sI77
g2725
sI81
g2758
sI82
g2767
sI85
g2785
sI86
g2793
sI87
g2799
sI89
g2805
sI90
g2810
sI92
g2819
sI94
g2828
sI98
(dp2835
sI99
(dp2836
sI244
(dp2837
ssI98
(dp2838
I1
g382
sI2
g420
sI4
g493
sI10
g697
sI18
g936
sI19
g964
sI20
g999
sI21
g1026
sI24
g1087
sI35
g1320
sI36
g1338
sI40
g1446
sI41
g1501
sI42
g1558
sI45
g1722
sI48
g1871
sI49
g1918
sI52
g2058
sI53
g2100
sI56
g2225
sI57
g2263
sI63
g2451
sI64
g2477
sI68
g2586
sI73
g2676
sI76
g2712
sI79
g2739
sI80
g2749
sI83
g2771
sI85
g2786
sI86
g2794
sI88
g2802
sI89
g2806
sI91
g2816
sI92
g2820
sI93
g2824
sI94
g2829
sI97
g2835
ssI99
(dp2839
I3
g460
sI5
g525
sI8
g630
sI13
g793
sI18
g937
sI20
g1000
sI25
g1135
sI40
g1447
sI41
g1502
sI42
g1559
sI43
g1613
sI44
g1668
sI45
g1723
sI46
g1773
sI47
g1822
sI49
g1919
sI50
g1965
sI51
g2012
sI52
g2059
sI54
g2141
sI55
g2185
sI56
g2226
sI57
g2264
sI58
g2301
sI61
g2394
sI64
g2478
sI65
g2508
sI66
g2538
sI70
g2618
sI71
g2640
sI72
g2659
sI77
g2726
sI80
g2750
sI81
g2759
sI83
g2772
sI90
g2811
sI92
g2821
sI93
g2825
sI94
g2830
sI97
g2836
ssI100
(dp2840
I140
(dp2841
sI141
(dp2842
sI142
(dp2843
sI144
(dp2844
sI145
(dp2845
sI146
(dp2846
sI147
(dp2847
sI148
(dp2848
sI149
(dp2849
sI150
(dp2850
sI154
(dp2851
sI156
(dp2852
sI158
(dp2853
sI159
(dp2854
sI160
(dp2855
sI162
(dp2856
sI163
(dp2857
sI166
(dp2858
sI167
(dp2859
sI168
(dp2860
sI169
(dp2861
sI171
(dp2862
sI172
(dp2863
sI173
(dp2864
sI175
(dp2865
sI176
(dp2866
sI177
(dp2867
sI178
(dp2868
sI181
(dp2869
sI182
(dp2870
sI189
(dp2871
sI190
(dp2872
sI193
(dp2873
sI196
(dp2874
ssI101
(dp2875
I140
(dp2876
sI141
(dp2877
sI142
(dp2878
sI143
(dp2879
sI144
(dp2880
sI145
(dp2881
sI146
(dp2882
sI147
(dp2883
sI148
(dp2884
sI150
(dp2885
sI151
(dp2886
sI152
(dp2887
sI154
(dp2888
sI155
(dp2889
sI156
(dp2890
sI157
(dp2891
sI158
(dp2892
sI159
(dp2893
sI160
(dp2894
sI161
(dp2895
sI162
(dp2896
sI163
(dp2897
sI166
(dp2898
sI167
(dp2899
sI173
(dp2900
sI176
(dp2901
sI177
(dp2902
sI180
(dp2903
sI186
(dp2904
sI188
(dp2905
sI196
(dp2906
sI197
(dp2907
sI198
(dp2908
ssI102
(dp2909
I140
(dp2910
sI141
(dp2911
sI142
(dp2912
sI143
(dp2913
sI144
(dp2914
sI145
(dp2915
sI146
(dp2916
sI147
(dp2917
sI148
(dp2918
sI149
(dp2919
sI150
(dp2920
sI151
(dp2921
sI152
(dp2922
sI153
(dp2923
sI154
(dp2924
sI156
(dp2925
sI157
(dp2926
sI158
(dp2927
sI159
(dp2928
sI161
(dp2929
sI162
(dp2930
sI163
(dp2931
sI165
(dp2932
sI167
(dp2933
sI168
(dp2934
sI169
(dp2935
sI172
(dp2936
sI174
(dp2937
sI180
(dp2938
sI181
(dp2939
sI183
(dp2940
sI186
(dp2941
sI187
(dp2942
sI189
(dp2943
sI194
(dp2944
sI197
(dp2945
sI198
(dp2946
sI290
(dp2947
ssI103
(dp2948
I140
(dp2949
sI141
(dp2950
sI142
(dp2951
sI143
(dp2952
sI144
(dp2953
sI145
(dp2954
sI146
(dp2955
sI149
(dp2956
sI150
(dp2957
sI151
(dp2958
sI152
(dp2959
sI153
(dp2960
sI155
(dp2961
sI157
(dp2962
sI158
(dp2963
sI159
(dp2964
sI160
(dp2965
sI162
(dp2966
sI163
(dp2967
sI164
(dp2968
sI165
(dp2969
sI166
(dp2970
sI167
(dp2971
sI168
(dp2972
sI169
(dp2973
sI170
(dp2974
sI172
(dp2975
sI175
(dp2976
sI176
(dp2977
sI179
(dp2978
sI180
(dp2979
sI181
(dp2980
sI183
(dp2981
sI185
(dp2982
sI189
(dp2983
sI190
(dp2984
sI193
(dp2985
sI197
(dp2986
sI199
(dp2987
sI69
g2605
ssI104
(dp2988
I9
g662
sI140
(dp2989
sI141
(dp2990
sI142
(dp2991
sI143
(dp2992
sI144
(dp2993
sI145
(dp2994
sI146
(dp2995
sI148
(dp2996
sI150
(dp2997
sI151
(dp2998
sI152
(dp2999
sI153
(dp3000
sI154
(dp3001
sI160
(dp3002
sI163
(dp3003
sI164
(dp3004
sI165
(dp3005
sI166
(dp3006
sI171
(dp3007
sI174
(dp3008
sI175
(dp3009
sI178
(dp3010
sI179
(dp3011
sI180
(dp3012
sI181
(dp3013
sI185
(dp3014
sI187
(dp3015
sI190
(dp3016
sI191
(dp3017
sI192
(dp3018
sI198
(dp3019
ssI105
(dp3020
I140
(dp3021
sI141
(dp3022
sI142
(dp3023
sI143
(dp3024
sI144
(dp3025
sI146
(dp3026
sI147
(dp3027
sI149
(dp3028
sI150
(dp3029
sI152
(dp3030
sI156
(dp3031
sI157
(dp3032
sI158
(dp3033
sI164
(dp3034
sI165
(dp3035
sI167
(dp3036
sI170
(dp3037
sI171
(dp3038
sI172
(dp3039
sI174
(dp3040
sI179
(dp3041
sI181
(dp3042
sI183
(dp3043
sI186
(dp3044
sI187
(dp3045
sI191
(dp3046
sI193
(dp3047
sI194
(dp3048
sI195
(dp3049
sI197
(dp3050
sI199
(dp3051
ssI106
(dp3052
I140
(dp3053
sI141
(dp3054
sI142
(dp3055
sI143
(dp3056
sI144
(dp3057
sI145
(dp3058
sI146
(dp3059
sI147
(dp3060
sI148
(dp3061
sI150
(dp3062
sI151
(dp3063
sI152
(dp3064
sI153
(dp3065
sI154
(dp3066
sI155
(dp3067
sI156
(dp3068
sI157
(dp3069
sI158
(dp3070
sI161
(dp3071
sI162
(dp3072
sI163
(dp3073
sI164
(dp3074
sI165
(dp3075
sI172
(dp3076
sI175
(dp3077
sI176
(dp3078
sI178
(dp3079
sI179
(dp3080
sI181
(dp3081
sI182
(dp3082
sI183
(dp3083
sI184
(dp3084
sI185
(dp3085
sI186
(dp3086
ssI107
(dp3087
I140
(dp3088
sI141
(dp3089
sI142
(dp3090
sI143
(dp3091
sI144
(dp3092
sI145
(dp3093
sI146
(dp3094
sI147
(dp3095
sI148
(dp3096
sI149
(dp3097
sI150
(dp3098
sI151
(dp3099
sI153
(dp3100
sI154
(dp3101
sI155
(dp3102
sI156
(dp3103
sI157
(dp3104
sI158
(dp3105
sI161
(dp3106
sI162
(dp3107
sI163
(dp3108
sI164
(dp3109
sI165
(dp3110
sI166
(dp3111
sI173
(dp3112
sI178
(dp3113
sI181
(dp3114
sI182
(dp3115
sI184
(dp3116
sI185
(dp3117
sI190
(dp3118
sI191
(dp3119
sI194
(dp3120
sI195
(dp3121
sI196
(dp3122
ssI108
(dp3123
I140
(dp3124
sI141
(dp3125
sI142
(dp3126
sI143
(dp3127
sI144
(dp3128
sI145
(dp3129
sI146
(dp3130
sI147
(dp3131
sI148
(dp3132
sI150
(dp3133
sI151
(dp3134
sI153
(dp3135
sI154
(dp3136
sI155
(dp3137
sI157
(dp3138
sI160
(dp3139
sI161
(dp3140
sI162
(dp3141
sI163
(dp3142
sI165
(dp3143
sI166
(dp3144
sI167
(dp3145
sI168
(dp3146
sI172
(dp3147
sI176
(dp3148
sI180
(dp3149
sI181
(dp3150
sI184
(dp3151
sI185
(dp3152
sI186
(dp3153
sI187
(dp3154
sI199
(dp3155
ssI109
(dp3156
I140
(dp3157
sI142
(dp3158
sI143
(dp3159
sI145
(dp3160
sI146
(dp3161
sI147
(dp3162
sI148
(dp3163
sI149
(dp3164
sI150
(dp3165
sI151
(dp3166
sI152
(dp3167
sI153
(dp3168
sI155
(dp3169
sI156
(dp3170
sI158
(dp3171
sI160
(dp3172
sI162
(dp3173
sI167
(dp3174
sI172
(dp3175
sI173
(dp3176
sI174
(dp3177
sI176
(dp3178
sI186
(dp3179
sI188
(dp3180
sI191
(dp3181
sI192
(dp3182
sI193
(dp3183
sI195
(dp3184
sI196
(dp3185
ssI110
(dp3186
I140
(dp3187
sI141
(dp3188
sI142
(dp3189
sI143
(dp3190
sI144
(dp3191
sI145
(dp3192
sI146
(dp3193
sI147
(dp3194
sI148
(dp3195
sI149
(dp3196
sI150
(dp3197
sI151
(dp3198
sI152
(dp3199
sI153
(dp3200
sI154
(dp3201
sI155
(dp3202
sI156
(dp3203
sI157
(dp3204
sI158
(dp3205
sI159
(dp3206
sI163
(dp3207
sI164
(dp3208
sI166
(dp3209
sI167
(dp3210
sI168
(dp3211
sI169
(dp3212
sI170
(dp3213
sI171
(dp3214
sI175
(dp3215
sI178
(dp3216
sI184
(dp3217
sI185
(dp3218
sI189
(dp3219
sI198
(dp3220
ssI111
(dp3221
I140
(dp3222
sI141
(dp3223
sI142
(dp3224
sI143
(dp3225
sI144
(dp3226
sI145
(dp3227
sI146
(dp3228
sI147
(dp3229
sI148
(dp3230
sI149
(dp3231
sI150
(dp3232
sI151
(dp3233
sI152
(dp3234
sI153
(dp3235
sI154
(dp3236
sI156
(dp3237
sI157
(dp3238
sI158
(dp3239
sI159
(dp3240
sI160
(dp3241
sI161
(dp3242
sI162
(dp3243
sI163
(dp3244
sI165
(dp3245
sI166
(dp3246
sI167
(dp3247
sI168
(dp3248
sI170
(dp3249
sI171
(dp3250
sI173
(dp3251
sI174
(dp3252
sI175
(dp3253
sI176
(dp3254
sI181
(dp3255
sI184
(dp3256
sI185
(dp3257
sI188
(dp3258
sI189
(dp3259
sI191
(dp3260
sI195
(dp3261
ssI112
(dp3262
I140
(dp3263
sI141
(dp3264
sI143
(dp3265
sI144
(dp3266
sI147
(dp3267
sI149
(dp3268
sI151
(dp3269
sI152
(dp3270
sI156
(dp3271
sI157
(dp3272
sI159
(dp3273
sI161
(dp3274
sI162
(dp3275
sI164
(dp3276
sI171
(dp3277
sI172
(dp3278
sI173
(dp3279
sI177
(dp3280
sI180
(dp3281
sI184
(dp3282
sI185
(dp3283
sI188
(dp3284
sI190
(dp3285
sI191
(dp3286
sI194
(dp3287
sI197
(dp3288
sI233
(dp3289
ssI113
(dp3290
I140
(dp3291
sI141
(dp3292
sI142
(dp3293
sI143
(dp3294
sI144
(dp3295
sI145
(dp3296
sI146
(dp3297
sI148
(dp3298
sI149
(dp3299
sI150
(dp3300
sI151
(dp3301
sI152
(dp3302
sI153
(dp3303
sI155
(dp3304
sI159
(dp3305
sI161
(dp3306
sI163
(dp3307
sI165
(dp3308
sI169
(dp3309
sI170
(dp3310
sI172
(dp3311
sI174
(dp3312
sI176
(dp3313
sI188
(dp3314
sI193
(dp3315
sI199
(dp3316
ssI114
(dp3317
I140
(dp3318
sI141
(dp3319
sI142
(dp3320
sI143
(dp3321
sI144
(dp3322
sI145
(dp3323
sI146
(dp3324
sI147
(dp3325
sI148
(dp3326
sI149
(dp3327
sI150
(dp3328
sI151
(dp3329
sI153
(dp3330
sI154
(dp3331
sI155
(dp3332
sI157
(dp3333
sI158
(dp3334
sI161
(dp3335
sI163
(dp3336
sI164
(dp3337
sI165
(dp3338
sI166
(dp3339
sI168
(dp3340
sI169
(dp3341
sI170
(dp3342
sI172
(dp3343
sI177
(dp3344
sI178
(dp3345
sI179
(dp3346
sI182
(dp3347
sI185
(dp3348
sI187
(dp3349
sI189
(dp3350
sI195
(dp3351
ssI115
(dp3352
I140
(dp3353
sI141
(dp3354
sI142
(dp3355
sI143
(dp3356
sI144
(dp3357
sI145
(dp3358
sI146
(dp3359
sI147
(dp3360
sI148
(dp3361
sI149
(dp3362
sI151
(dp3363
sI152
(dp3364
sI156
(dp3365
sI157
(dp3366
sI159
(dp3367
sI160
(dp3368
sI161
(dp3369
sI164
(dp3370
sI169
(dp3371
sI171
(dp3372
sI73
g2677
sI246
(dp3373
ssI116
(dp3374
I64
g2479
sI140
(dp3375
sI141
(dp3376
sI142
(dp3377
sI143
(dp3378
sI144
(dp3379
sI145
(dp3380
sI146
(dp3381
sI148
(dp3382
sI149
(dp3383
sI150
(dp3384
sI152
(dp3385
sI153
(dp3386
sI155
(dp3387
sI156
(dp3388
sI158
(dp3389
sI159
(dp3390
sI160
(dp3391
sI165
(dp3392
sI167
(dp3393
sI168
(dp3394
sI182
(dp3395
sI185
(dp3396
sI190
(dp3397
sI191
(dp3398
sI192
(dp3399
sI194
(dp3400
sI197
(dp3401
sI223
(dp3402
ssI117
(dp3403
I140
(dp3404
sI141
(dp3405
sI142
(dp3406
sI143
(dp3407
sI144
(dp3408
sI145
(dp3409
sI146
(dp3410
sI148
(dp3411
sI149
(dp3412
sI150
(dp3413
sI151
(dp3414
sI152
(dp3415
sI154
(dp3416
sI155
(dp3417
sI156
(dp3418
sI158
(dp3419
sI159
(dp3420
sI160
(dp3421
sI163
(dp3422
sI164
(dp3423
sI165
(dp3424
sI169
(dp3425
sI173
(dp3426
sI174
(dp3427
sI177
(dp3428
sI186
(dp3429
sI189
(dp3430
sI192
(dp3431
sI194
(dp3432
ssI118
(dp3433
I140
(dp3434
sI141
(dp3435
sI142
(dp3436
sI143
(dp3437
sI144
(dp3438
sI145
(dp3439
sI146
(dp3440
sI147
(dp3441
sI148
(dp3442
sI151
(dp3443
sI154
(dp3444
sI155
(dp3445
sI160
(dp3446
sI162
(dp3447
sI164
(dp3448
sI165
(dp3449
sI166
(dp3450
sI171
(dp3451
sI173
(dp3452
sI177
(dp3453
sI179
(dp3454
sI182
(dp3455
sI184
(dp3456
sI192
(dp3457
sI193
(dp3458
sI194
(dp3459
sI197
(dp3460
sI198
(dp3461
sI199
(dp3462
ssI119
(dp3463
I140
(dp3464
sI141
(dp3465
sI142
(dp3466
sI143
(dp3467
sI144
(dp3468
sI145
(dp3469
sI146
(dp3470
sI147
(dp3471
sI148
(dp3472
sI149
(dp3473
sI150
(dp3474
sI151
(dp3475
sI152
(dp3476
sI154
(dp3477
sI155
(dp3478
sI157
(dp3479
sI159
(dp3480
sI165
(dp3481
sI167
(dp3482
sI168
(dp3483
sI170
(dp3484
sI177
(dp3485
sI180
(dp3486
sI181
(dp3487
sI193
(dp3488
sI198
(dp3489
ssI120
(dp3490
I140
(dp3491
sI141
(dp3492
sI142
(dp3493
sI143
(dp3494
sI144
(dp3495
sI145
(dp3496
sI146
(dp3497
sI147
(dp3498
sI148
(dp3499
sI149
(dp3500
sI150
(dp3501
sI151
(dp3502
sI152
(dp3503
sI153
(dp3504
sI154
(dp3505
sI155
(dp3506
sI157
(dp3507
sI159
(dp3508
sI162
(dp3509
sI166
(dp3510
sI167
(dp3511
sI169
(dp3512
sI170
(dp3513
sI174
(dp3514
sI177
(dp3515
sI179
(dp3516
sI181
(dp3517
sI185
(dp3518
sI188
(dp3519
sI190
(dp3520
sI191
(dp3521
sI194
(dp3522
sI198
(dp3523
sI199
(dp3524
ssI121
(dp3525
I262
(dp3526
sI140
(dp3527
sI141
(dp3528
sI142
(dp3529
sI143
(dp3530
sI144
(dp3531
sI145
(dp3532
sI146
(dp3533
sI147
(dp3534
sI148
(dp3535
sI149
(dp3536
sI151
(dp3537
sI152
(dp3538
sI153
(dp3539
sI154
(dp3540
sI155
(dp3541
sI157
(dp3542
sI160
(dp3543
sI166
(dp3544
sI170
(dp3545
sI171
(dp3546
sI179
(dp3547
sI185
(dp3548
sI186
(dp3549
sI194
(dp3550
sI198
(dp3551
sI207
(dp3552
ssI122
(dp3553
I140
(dp3554
sI141
(dp3555
sI142
(dp3556
sI143
(dp3557
sI144
(dp3558
sI145
(dp3559
sI146
(dp3560
sI147
(dp3561
sI148
(dp3562
sI149
(dp3563
sI150
(dp3564
sI151
(dp3565
sI152
(dp3566
sI153
(dp3567
sI155
(dp3568
sI156
(dp3569
sI157
(dp3570
sI158
(dp3571
sI159
(dp3572
sI161
(dp3573
sI162
(dp3574
sI163
(dp3575
sI164
(dp3576
sI165
(dp3577
sI169
(dp3578
sI174
(dp3579
sI182
(dp3580
ssI123
(dp3581
I140
(dp3582
sI141
(dp3583
sI142
(dp3584
sI143
(dp3585
sI144
(dp3586
sI145
(dp3587
sI146
(dp3588
sI147
(dp3589
sI148
(dp3590
sI149
(dp3591
sI150
(dp3592
sI153
(dp3593
sI154
(dp3594
sI155
(dp3595
sI156
(dp3596
sI157
(dp3597
sI159
(dp3598
sI161
(dp3599
sI162
(dp3600
sI163
(dp3601
sI166
(dp3602
sI167
(dp3603
sI169
(dp3604
sI171
(dp3605
sI174
(dp3606
sI187
(dp3607
sI190
(dp3608
sI193
(dp3609
sI194
(dp3610
ssI124
(dp3611
I161
(dp3612
sI198
(dp3613
sI140
(dp3614
sI141
(dp3615
sI142
(dp3616
sI143
(dp3617
sI144
(dp3618
sI147
(dp3619
sI148
(dp3620
sI149
(dp3621
sI151
(dp3622
sI153
(dp3623
sI180
(dp3624
sI154
(dp3625
sI159
(dp3626
sI190
(dp3627
sI181
(dp3628
ssI125
(dp3629
I140
(dp3630
sI141
(dp3631
sI142
(dp3632
sI143
(dp3633
sI144
(dp3634
sI145
(dp3635
sI146
(dp3636
sI147
(dp3637
sI148
(dp3638
sI149
(dp3639
sI150
(dp3640
sI152
(dp3641
sI154
(dp3642
sI155
(dp3643
sI156
(dp3644
sI157
(dp3645
sI158
(dp3646
sI159
(dp3647
sI160
(dp3648
sI161
(dp3649
sI162
(dp3650
sI163
(dp3651
sI164
(dp3652
sI166
(dp3653
sI171
(dp3654
sI180
(dp3655
sI187
(dp3656
sI189
(dp3657
sI190
(dp3658
sI193
(dp3659
sI197
(dp3660
sI199
(dp3661
ssI126
(dp3662
I140
(dp3663
sI141
(dp3664
sI142
(dp3665
sI143
(dp3666
sI144
(dp3667
sI145
(dp3668
sI146
(dp3669
sI147
(dp3670
sI148
(dp3671
sI149
(dp3672
sI150
(dp3673
sI151
(dp3674
sI152
(dp3675
sI153
(dp3676
sI155
(dp3677
sI156
(dp3678
sI160
(dp3679
sI161
(dp3680
sI162
(dp3681
sI163
(dp3682
sI164
(dp3683
sI174
(dp3684
sI177
(dp3685
sI187
(dp3686
sI281
(dp3687
ssI127
(dp3688
I140
(dp3689
sI141
(dp3690
sI142
(dp3691
sI143
(dp3692
sI144
(dp3693
sI145
(dp3694
sI146
(dp3695
sI147
(dp3696
sI148
(dp3697
sI149
(dp3698
sI150
(dp3699
sI151
(dp3700
sI152
(dp3701
sI153
(dp3702
sI154
(dp3703
sI155
(dp3704
sI158
(dp3705
sI159
(dp3706
sI161
(dp3707
sI162
(dp3708
sI168
(dp3709
sI177
(dp3710
sI182
(dp3711
sI187
(dp3712
ssI128
(dp3713
I4
g462
sI140
(dp3714
sI141
(dp3715
sI143
(dp3716
sI144
(dp3717
sI146
(dp3718
sI147
(dp3719
sI148
(dp3720
sI149
(dp3721
sI150
(dp3722
sI152
(dp3723
sI153
(dp3724
sI154
(dp3725
sI156
(dp3726
sI157
(dp3727
sI160
(dp3728
sI161
(dp3729
sI164
(dp3730
sI168
(dp3731
sI177
(dp3732
sI182
(dp3733
sI189
(dp3734
sI243
(dp3735
ssI129
(dp3736
I160
(dp3737
sI168
(dp3738
sI170
(dp3739
sI140
(dp3740
sI141
(dp3741
sI142
(dp3742
sI143
(dp3743
sI144
(dp3744
sI146
(dp3745
sI147
(dp3746
sI148
(dp3747
sI149
(dp3748
sI150
(dp3749
sI152
(dp3750
sI153
(dp3751
sI156
(dp3752
sI158
(dp3753
sI159
(dp3754
ssI130
(dp3755
I160
(dp3756
sI161
(dp3757
sI150
(dp3758
sI170
(dp3759
sI140
(dp3760
sI141
(dp3761
sI142
(dp3762
sI143
(dp3763
sI144
(dp3764
sI145
(dp3765
sI147
(dp3766
sI148
(dp3767
sI182
(dp3768
sI151
(dp3769
sI293
(dp3770
sI156
(dp3771
sI158
(dp3772
sI159
(dp3773
ssI131
(dp3774
I160
(dp3775
sI162
(dp3776
sI150
(dp3777
sI145
(dp3778
sI140
(dp3779
sI141
(dp3780
sI142
(dp3781
sI143
(dp3782
sI177
(dp3783
sI146
(dp3784
sI147
(dp3785
sI148
(dp3786
sI182
(dp3787
sI151
(dp3788
sI153
(dp3789
sI154
(dp3790
sI155
(dp3791
sI156
(dp3792
sI190
(dp3793
sI159
(dp3794
ssI132
(dp3795
I140
(dp3796
sI141
(dp3797
sI142
(dp3798
sI143
(dp3799
sI145
(dp3800
sI146
(dp3801
sI147
(dp3802
sI151
(dp3803
sI153
(dp3804
sI155
(dp3805
sI157
(dp3806
sI158
(dp3807
ssI133
(dp3808
I161
(dp3809
sI164
(dp3810
sI140
(dp3811
sI141
(dp3812
sI142
(dp3813
sI143
(dp3814
sI144
(dp3815
sI145
(dp3816
sI146
(dp3817
sI147
(dp3818
sI148
(dp3819
sI149
(dp3820
sI150
(dp3821
sI151
(dp3822
sI153
(dp3823
sI154
(dp3824
sI155
(dp3825
sI156
(dp3826
sI157
(dp3827
ssI134
(dp3828
I140
(dp3829
sI141
(dp3830
sI142
(dp3831
sI143
(dp3832
sI144
(dp3833
sI145
(dp3834
sI146
(dp3835
sI147
(dp3836
sI148
(dp3837
sI181
(dp3838
sI86
g2788
sI152
(dp3839
sI153
(dp3840
sI155
(dp3841
sI156
(dp3842
sI157
(dp3843
sI149
(dp3844
ssI135
(dp3845
I198
(dp3846
sI140
(dp3847
sI141
(dp3848
sI142
(dp3849
sI143
(dp3850
sI144
(dp3851
sI145
(dp3852
sI149
(dp3853
sI150
(dp3854
sI151
(dp3855
sI152
(dp3856
sI153
(dp3857
sI154
(dp3858
sI157
(dp3859
sI158
(dp3860
ssI136
(dp3861
I160
(dp3862
sI150
(dp3863
sI198
(dp3864
sI140
(dp3865
sI141
(dp3866
sI142
(dp3867
sI143
(dp3868
sI144
(dp3869
sI145
(dp3870
sI149
(dp3871
sI182
(dp3872
sI151
(dp3873
sI154
(dp3874
sI155
(dp3875
sI156
(dp3876
sI158
(dp3877
ssI137
(dp3878
I160
(dp3879
sI140
(dp3880
sI141
(dp3881
sI142
(dp3882
sI143
(dp3883
sI144
(dp3884
sI145
(dp3885
sI147
(dp3886
sI20
g966
sI152
(dp3887
sI158
(dp3888
ssI138
(dp3889
I140
(dp3890
sI141
(dp3891
sI142
(dp3892
sI144
(dp3893
sI145
(dp3894
sI146
(dp3895
sI147
(dp3896
sI148
(dp3897
sI149
(dp3898
sI152
(dp3899
sI153
(dp3900
sI154
(dp3901
ssI139
(dp3902
I140
(dp3903
sI141
(dp3904
sI142
(dp3905
sI145
(dp3906
sI146
(dp3907
sI147
(dp3908
sI149
(dp3909
sI152
(dp3910
sI154
(dp3911
ssI140
(dp3912
I100
g2841
sI101
g2876
sI102
g2910
sI103
g2949
sI104
g2989
sI105
g3021
sI106
g3053
sI107
g3088
sI108
g3124
sI109
g3157
sI110
g3187
sI111
g3222
sI112
g3263
sI113
g3291
sI114
g3318
sI115
g3353
sI116
g3375
sI117
g3404
sI118
g3434
sI119
g3464
sI120
g3491
sI121
g3527
sI122
g3554
sI123
g3582
sI124
g3614
sI125
g3630
sI126
g3663
sI127
g3689
sI128
g3714
sI129
g3740
sI130
g3760
sI131
g3779
sI132
g3796
sI133
g3811
sI134
g3829
sI135
g3847
sI136
g3865
sI137
g3880
sI138
g3890
sI139
g3903
sI141
(dp3913
sI142
(dp3914
sI143
(dp3915
sI144
(dp3916
sI145
(dp3917
sI146
(dp3918
sI147
(dp3919
sI148
(dp3920
sI149
(dp3921
sI150
(dp3922
sI151
(dp3923
sI152
(dp3924
sI153
(dp3925
sI154
(dp3926
sI155
(dp3927
sI156
(dp3928
sI157
(dp3929
sI158
(dp3930
sI159
(dp3931
sI160
(dp3932
sI161
(dp3933
sI162
(dp3934
sI163
(dp3935
sI164
(dp3936
sI165
(dp3937
sI166
(dp3938
sI167
(dp3939
sI168
(dp3940
sI169
(dp3941
sI170
(dp3942
sI171
(dp3943
sI172
(dp3944
sI173
(dp3945
sI174
(dp3946
sI175
(dp3947
sI176
(dp3948
sI178
(dp3949
sI179
(dp3950
sI180
(dp3951
sI181
(dp3952
sI182
(dp3953
sI183
(dp3954
sI184
(dp3955
sI185
(dp3956
sI186
(dp3957
sI187
(dp3958
sI188
(dp3959
sI190
(dp3960
sI191
(dp3961
sI192
(dp3962
sI193
(dp3963
sI194
(dp3964
sI195
(dp3965
sI196
(dp3966
sI197
(dp3967
sI198
(dp3968
sI199
(dp3969
ssI141
(dp3970
I91
g2813
sI100
g2842
sI101
g2877
sI102
g2911
sI103
g2950
sI104
g2990
sI105
g3022
sI106
g3054
sI107
g3089
sI108
g3125
sI110
g3188
sI111
g3223
sI112
g3264
sI113
g3292
sI114
g3319
sI115
g3354
sI116
g3376
sI117
g3405
sI118
g3435
sI119
g3465
sI120
g3492
sI121
g3528
sI122
g3555
sI123
g3583
sI124
g3615
sI125
g3631
sI126
g3664
sI127
g3690
sI128
g3715
sI129
g3741
sI130
g3761
sI131
g3780
sI132
g3797
sI133
g3812
sI134
g3830
sI135
g3848
sI136
g3866
sI137
g3881
sI138
g3891
sI139
g3904
sI140
g3913
sI142
(dp3971
sI143
(dp3972
sI144
(dp3973
sI145
(dp3974
sI146
(dp3975
sI147
(dp3976
sI148
(dp3977
sI149
(dp3978
sI150
(dp3979
sI151
(dp3980
sI152
(dp3981
sI153
(dp3982
sI154
(dp3983
sI155
(dp3984
sI156
(dp3985
sI157
(dp3986
sI158
(dp3987
sI159
(dp3988
sI160
(dp3989
sI161
(dp3990
sI162
(dp3991
sI163
(dp3992
sI164
(dp3993
sI165
(dp3994
sI166
(dp3995
sI167
(dp3996
sI168
(dp3997
sI169
(dp3998
sI170
(dp3999
sI171
(dp4000
sI172
(dp4001
sI173
(dp4002
sI174
(dp4003
sI175
(dp4004
sI176
(dp4005
sI178
(dp4006
sI179
(dp4007
sI180
(dp4008
sI182
(dp4009
sI183
(dp4010
sI184
(dp4011
sI185
(dp4012
sI186
(dp4013
sI187
(dp4014
sI189
(dp4015
sI190
(dp4016
sI191
(dp4017
sI192
(dp4018
sI193
(dp4019
sI194
(dp4020
sI196
(dp4021
sI197
(dp4022
sI198
(dp4023
sI199
(dp4024
ssI142
(dp4025
I100
g2843
sI101
g2878
sI102
g2912
sI103
g2951
sI104
g2991
sI105
g3023
sI106
g3055
sI107
g3090
sI108
g3126
sI109
g3158
sI110
g3189
sI111
g3224
sI113
g3293
sI114
g3320
sI115
g3355
sI116
g3377
sI117
g3406
sI118
g3436
sI119
g3466
sI120
g3493
sI121
g3529
sI122
g3556
sI123
g3584
sI124
g3616
sI125
g3632
sI126
g3665
sI127
g3691
sI129
g3742
sI130
g3762
sI131
g3781
sI132
g3798
sI133
g3813
sI134
g3831
sI135
g3849
sI136
g3867
sI137
g3882
sI138
g3892
sI139
g3905
sI140
g3914
sI141
g3971
sI143
(dp4026
sI144
(dp4027
sI145
(dp4028
sI146
(dp4029
sI147
(dp4030
sI148
(dp4031
sI149
(dp4032
sI150
(dp4033
sI151
(dp4034
sI152
(dp4035
sI153
(dp4036
sI154
(dp4037
sI155
(dp4038
sI156
(dp4039
sI157
(dp4040
sI158
(dp4041
sI159
(dp4042
sI160
(dp4043
sI161
(dp4044
sI162
(dp4045
sI163
(dp4046
sI164
(dp4047
sI165
(dp4048
sI166
(dp4049
sI167
(dp4050
sI168
(dp4051
sI169
(dp4052
sI170
(dp4053
sI171
(dp4054
sI172
(dp4055
sI173
(dp4056
sI174
(dp4057
sI175
(dp4058
sI176
(dp4059
sI177
(dp4060
sI178
(dp4061
sI179
(dp4062
sI180
(dp4063
sI181
(dp4064
sI182
(dp4065
sI183
(dp4066
sI184
(dp4067
sI185
(dp4068
sI186
(dp4069
sI187
(dp4070
sI188
(dp4071
sI189
(dp4072
sI190
(dp4073
sI191
(dp4074
sI192
(dp4075
sI194
(dp4076
sI195
(dp4077
sI196
(dp4078
sI197
(dp4079
sI198
(dp4080
sI199
(dp4081
sI283
(dp4082
ssI143
(dp4083
I101
g2879
sI102
g2913
sI103
g2952
sI104
g2992
sI105
g3024
sI106
g3056
sI107
g3091
sI108
g3127
sI109
g3159
sI110
g3190
sI111
g3225
sI112
g3265
sI113
g3294
sI114
g3321
sI115
g3356
sI116
g3378
sI117
g3407
sI118
g3437
sI119
g3467
sI120
g3494
sI121
g3530
sI122
g3557
sI123
g3585
sI124
g3617
sI125
g3633
sI126
g3666
sI127
g3692
sI128
g3716
sI129
g3743
sI130
g3763
sI131
g3782
sI132
g3799
sI133
g3814
sI134
g3832
sI135
g3850
sI136
g3868
sI137
g3883
sI140
g3915
sI141
g3972
sI142
g4026
sI144
(dp4084
sI145
(dp4085
sI146
(dp4086
sI147
(dp4087
sI148
(dp4088
sI149
(dp4089
sI150
(dp4090
sI151
(dp4091
sI152
(dp4092
sI153
(dp4093
sI154
(dp4094
sI155
(dp4095
sI156
(dp4096
sI157
(dp4097
sI158
(dp4098
sI159
(dp4099
sI160
(dp4100
sI161
(dp4101
sI162
(dp4102
sI163
(dp4103
sI164
(dp4104
sI165
(dp4105
sI166
(dp4106
sI167
(dp4107
sI168
(dp4108
sI169
(dp4109
sI170
(dp4110
sI171
(dp4111
sI172
(dp4112
sI173
(dp4113
sI174
(dp4114
sI175
(dp4115
sI176
(dp4116
sI178
(dp4117
sI179
(dp4118
sI180
(dp4119
sI181
(dp4120
sI182
(dp4121
sI183
(dp4122
sI184
(dp4123
sI185
(dp4124
sI186
(dp4125
sI187
(dp4126
sI188
(dp4127
sI189
(dp4128
sI190
(dp4129
sI191
(dp4130
sI192
(dp4131
sI193
(dp4132
sI194
(dp4133
sI195
(dp4134
sI196
(dp4135
sI199
(dp4136
ssI144
(dp4137
I100
g2844
sI101
g2880
sI102
g2914
sI103
g2953
sI104
g2993
sI105
g3025
sI106
g3057
sI107
g3092
sI108
g3128
sI110
g3191
sI111
g3226
sI112
g3266
sI113
g3295
sI114
g3322
sI115
g3357
sI116
g3379
sI117
g3408
sI118
g3438
sI119
g3468
sI120
g3495
sI121
g3531
sI122
g3558
sI123
g3586
sI124
g3618
sI125
g3634
sI126
g3667
sI127
g3693
sI128
g3717
sI129
g3744
sI130
g3764
sI133
g3815
sI134
g3833
sI135
g3851
sI136
g3869
sI137
g3884
sI138
g3893
sI140
g3916
sI141
g3973
sI142
g4027
sI143
g4084
sI145
(dp4138
sI146
(dp4139
sI147
(dp4140
sI148
(dp4141
sI149
(dp4142
sI150
(dp4143
sI151
(dp4144
sI152
(dp4145
sI153
(dp4146
sI154
(dp4147
sI155
(dp4148
sI156
(dp4149
sI157
(dp4150
sI158
(dp4151
sI159
(dp4152
sI160
(dp4153
sI161
(dp4154
sI162
(dp4155
sI163
(dp4156
sI164
(dp4157
sI165
(dp4158
sI166
(dp4159
sI167
(dp4160
sI168
(dp4161
sI169
(dp4162
sI170
(dp4163
sI171
(dp4164
sI172
(dp4165
sI173
(dp4166
sI174
(dp4167
sI175
(dp4168
sI176
(dp4169
sI177
(dp4170
sI178
(dp4171
sI179
(dp4172
sI180
(dp4173
sI181
(dp4174
sI182
(dp4175
sI183
(dp4176
sI184
(dp4177
sI185
(dp4178
sI186
(dp4179
sI187
(dp4180
sI188
(dp4181
sI189
(dp4182
sI190
(dp4183
sI191
(dp4184
sI192
(dp4185
sI193
(dp4186
sI194
(dp4187
sI195
(dp4188
sI196
(dp4189
sI197
(dp4190
sI199
(dp4191
ssI145
(dp4192
I100
g2845
sI101
g2881
sI102
g2915
sI103
g2954
sI104
g2994
sI106
g3058
sI107
g3093
sI108
g3129
sI109
g3160
sI110
g3192
sI111
g3227
sI113
g3296
sI114
g3323
sI115
g3358
sI116
g3380
sI117
g3409
sI118
g3439
sI119
g3469
sI120
g3496
sI121
g3532
sI122
g3559
sI123
g3587
sI125
g3635
sI126
g3668
sI127
g3694
sI130
g3765
sI131
g3778
sI132
g3800
sI133
g3816
sI134
g3834
sI135
g3852
sI136
g3870
sI137
g3885
sI138
g3894
sI139
g3906
sI140
g3917
sI141
g3974
sI142
g4028
sI143
g4085
sI144
g4138
sI146
(dp4193
sI147
(dp4194
sI148
(dp4195
sI149
(dp4196
sI150
(dp4197
sI151
(dp4198
sI152
(dp4199
sI153
(dp4200
sI154
(dp4201
sI155
(dp4202
sI156
(dp4203
sI157
(dp4204
sI158
(dp4205
sI159
(dp4206
sI160
(dp4207
sI161
(dp4208
sI162
(dp4209
sI163
(dp4210
sI164
(dp4211
sI165
(dp4212
sI166
(dp4213
sI167
(dp4214
sI168
(dp4215
sI169
(dp4216
sI170
(dp4217
sI171
(dp4218
sI172
(dp4219
sI173
(dp4220
sI174
(dp4221
sI175
(dp4222
sI176
(dp4223
sI177
(dp4224
sI178
(dp4225
sI179
(dp4226
sI180
(dp4227
sI181
(dp4228
sI182
(dp4229
sI183
(dp4230
sI184
(dp4231
sI185
(dp4232
sI186
(dp4233
sI187
(dp4234
sI188
(dp4235
sI189
(dp4236
sI190
(dp4237
sI191
(dp4238
sI192
(dp4239
sI193
(dp4240
sI194
(dp4241
sI195
(dp4242
sI196
(dp4243
sI197
(dp4244
sI198
(dp4245
sI199
(dp4246
ssI146
(dp4247
I100
g2846
sI101
g2882
sI102
g2916
sI103
g2955
sI104
g2995
sI105
g3026
sI106
g3059
sI107
g3094
sI108
g3130
sI109
g3161
sI110
g3193
sI111
g3228
sI113
g3297
sI114
g3324
sI115
g3359
sI116
g3381
sI117
g3410
sI118
g3440
sI119
g3470
sI120
g3497
sI121
g3533
sI122
g3560
sI123
g3588
sI125
g3636
sI126
g3669
sI127
g3695
sI128
g3718
sI129
g3745
sI131
g3784
sI132
g3801
sI133
g3817
sI134
g3835
sI138
g3895
sI139
g3907
sI140
g3918
sI141
g3975
sI142
g4029
sI143
g4086
sI144
g4139
sI145
g4193
sI147
(dp4248
sI148
(dp4249
sI149
(dp4250
sI150
(dp4251
sI151
(dp4252
sI152
(dp4253
sI153
(dp4254
sI154
(dp4255
sI155
(dp4256
sI156
(dp4257
sI157
(dp4258
sI158
(dp4259
sI159
(dp4260
sI160
(dp4261
sI161
(dp4262
sI162
(dp4263
sI163
(dp4264
sI164
(dp4265
sI165
(dp4266
sI166
(dp4267
sI167
(dp4268
sI168
(dp4269
sI169
(dp4270
sI170
(dp4271
sI171
(dp4272
sI172
(dp4273
sI173
(dp4274
sI174
(dp4275
sI175
(dp4276
sI176
(dp4277
sI177
(dp4278
sI178
(dp4279
sI179
(dp4280
sI180
(dp4281
sI182
(dp4282
sI183
(dp4283
sI184
(dp4284
sI185
(dp4285
sI186
(dp4286
sI187
(dp4287
sI188
(dp4288
sI189
(dp4289
sI191
(dp4290
sI192
(dp4291
sI193
(dp4292
sI195
(dp4293
sI197
(dp4294
sI199
(dp4295
ssI147
(dp4296
I100
g2847
sI101
g2883
sI102
g2917
sI105
g3027
sI106
g3060
sI107
g3095
sI108
g3131
sI109
g3162
sI110
g3194
sI111
g3229
sI112
g3267
sI114
g3325
sI115
g3360
sI118
g3441
sI119
g3471
sI120
g3498
sI121
g3534
sI122
g3561
sI123
g3589
sI124
g3619
sI125
g3637
sI126
g3670
sI127
g3696
sI128
g3719
sI129
g3746
sI130
g3766
sI131
g3785
sI132
g3802
sI133
g3818
sI134
g3836
sI137
g3886
sI138
g3896
sI139
g3908
sI140
g3919
sI141
g3976
sI142
g4030
sI143
g4087
sI144
g4140
sI145
g4194
sI146
g4248
sI148
(dp4297
sI149
(dp4298
sI150
(dp4299
sI151
(dp4300
sI152
(dp4301
sI153
(dp4302
sI154
(dp4303
sI155
(dp4304
sI156
(dp4305
sI157
(dp4306
sI158
(dp4307
sI159
(dp4308
sI160
(dp4309
sI161
(dp4310
sI162
(dp4311
sI163
(dp4312
sI164
(dp4313
sI165
(dp4314
sI166
(dp4315
sI167
(dp4316
sI168
(dp4317
sI169
(dp4318
sI170
(dp4319
sI171
(dp4320
sI172
(dp4321
sI173
(dp4322
sI174
(dp4323
sI175
(dp4324
sI176
(dp4325
sI177
(dp4326
sI178
(dp4327
sI179
(dp4328
sI180
(dp4329
sI181
(dp4330
sI183
(dp4331
sI184
(dp4332
sI186
(dp4333
sI187
(dp4334
sI188
(dp4335
sI189
(dp4336
sI190
(dp4337
sI191
(dp4338
sI193
(dp4339
sI195
(dp4340
sI196
(dp4341
sI197
(dp4342
sI199
(dp4343
ssI148
(dp4344
I100
g2848
sI101
g2884
sI102
g2918
sI104
g2996
sI106
g3061
sI107
g3096
sI108
g3132
sI109
g3163
sI110
g3195
sI111
g3230
sI113
g3298
sI114
g3326
sI115
g3361
sI116
g3382
sI117
g3411
sI118
g3442
sI119
g3472
sI120
g3499
sI121
g3535
sI122
g3562
sI123
g3590
sI124
g3620
sI125
g3638
sI126
g3671
sI127
g3697
sI128
g3720
sI129
g3747
sI130
g3767
sI131
g3786
sI133
g3819
sI134
g3837
sI138
g3897
sI140
g3920
sI141
g3977
sI142
g4031
sI143
g4088
sI144
g4141
sI145
g4195
sI146
g4249
sI147
g4297
sI149
(dp4345
sI150
(dp4346
sI151
(dp4347
sI152
(dp4348
sI153
(dp4349
sI154
(dp4350
sI155
(dp4351
sI156
(dp4352
sI157
(dp4353
sI158
(dp4354
sI159
(dp4355
sI160
(dp4356
sI161
(dp4357
sI162
(dp4358
sI163
(dp4359
sI164
(dp4360
sI165
(dp4361
sI166
(dp4362
sI167
(dp4363
sI168
(dp4364
sI169
(dp4365
sI170
(dp4366
sI171
(dp4367
sI172
(dp4368
sI173
(dp4369
sI174
(dp4370
sI175
(dp4371
sI176
(dp4372
sI177
(dp4373
sI178
(dp4374
sI179
(dp4375
sI180
(dp4376
sI181
(dp4377
sI182
(dp4378
sI183
(dp4379
sI184
(dp4380
sI185
(dp4381
sI186
(dp4382
sI187
(dp4383
sI188
(dp4384
sI190
(dp4385
sI191
(dp4386
sI192
(dp4387
sI193
(dp4388
sI194
(dp4389
sI195
(dp4390
sI196
(dp4391
sI198
(dp4392
ssI149
(dp4393
I100
g2849
sI102
g2919
sI103
g2956
sI105
g3028
sI107
g3097
sI109
g3164
sI110
g3196
sI111
g3231
sI112
g3268
sI113
g3299
sI114
g3327
sI115
g3362
sI116
g3383
sI117
g3412
sI119
g3473
sI120
g3500
sI121
g3536
sI122
g3563
sI123
g3591
sI124
g3621
sI125
g3639
sI126
g3672
sI127
g3698
sI128
g3721
sI129
g3748
sI133
g3820
sI134
g3844
sI135
g3853
sI136
g3871
sI138
g3898
sI139
g3909
sI140
g3921
sI141
g3978
sI142
g4032
sI143
g4089
sI144
g4142
sI145
g4196
sI146
g4250
sI147
g4298
sI148
g4345
sI150
(dp4394
sI151
(dp4395
sI152
(dp4396
sI153
(dp4397
sI154
(dp4398
sI155
(dp4399
sI156
(dp4400
sI157
(dp4401
sI158
(dp4402
sI159
(dp4403
sI160
(dp4404
sI161
(dp4405
sI162
(dp4406
sI163
(dp4407
sI164
(dp4408
sI165
(dp4409
sI166
(dp4410
sI167
(dp4411
sI168
(dp4412
sI169
(dp4413
sI170
(dp4414
sI171
(dp4415
sI172
(dp4416
sI173
(dp4417
sI174
(dp4418
sI175
(dp4419
sI176
(dp4420
sI177
(dp4421
sI178
(dp4422
sI179
(dp4423
sI180
(dp4424
sI181
(dp4425
sI182
(dp4426
sI184
(dp4427
sI185
(dp4428
sI186
(dp4429
sI187
(dp4430
sI188
(dp4431
sI189
(dp4432
sI191
(dp4433
sI192
(dp4434
sI193
(dp4435
sI195
(dp4436
sI196
(dp4437
sI197
(dp4438
sI198
(dp4439
sI199
(dp4440
sI216
(dp4441
ssI150
(dp4442
I100
g2850
sI101
g2885
sI102
g2920
sI103
g2957
sI104
g2997
sI105
g3029
sI106
g3062
sI107
g3098
sI108
g3133
sI109
g3165
sI110
g3197
sI111
g3232
sI113
g3300
sI114
g3328
sI116
g3384
sI117
g3413
sI119
g3474
sI120
g3501
sI122
g3564
sI123
g3592
sI125
g3640
sI126
g3673
sI127
g3699
sI128
g3722
sI129
g3749
sI130
g3758
sI131
g3777
sI133
g3821
sI135
g3854
sI136
g3863
sI140
g3922
sI141
g3979
sI142
g4033
sI143
g4090
sI144
g4143
sI145
g4197
sI146
g4251
sI147
g4299
sI148
g4346
sI149
g4394
sI151
(dp4443
sI152
(dp4444
sI153
(dp4445
sI154
(dp4446
sI155
(dp4447
sI156
(dp4448
sI157
(dp4449
sI158
(dp4450
sI159
(dp4451
sI160
(dp4452
sI161
(dp4453
sI162
(dp4454
sI163
(dp4455
sI164
(dp4456
sI165
(dp4457
sI166
(dp4458
sI167
(dp4459
sI168
(dp4460
sI169
(dp4461
sI170
(dp4462
sI171
(dp4463
sI172
(dp4464
sI173
(dp4465
sI175
(dp4466
sI176
(dp4467
sI177
(dp4468
sI178
(dp4469
sI179
(dp4470
sI180
(dp4471
sI182
(dp4472
sI183
(dp4473
sI185
(dp4474
sI186
(dp4475
sI187
(dp4476
sI188
(dp4477
sI189
(dp4478
sI190
(dp4479
sI191
(dp4480
sI192
(dp4481
sI193
(dp4482
sI194
(dp4483
sI195
(dp4484
sI196
(dp4485
sI197
(dp4486
sI199
(dp4487
sI265
(dp4488
ssI151
(dp4489
I130
g3769
sI131
g3788
sI132
g3803
sI133
g3822
sI135
g3855
sI136
g3873
sI140
g3923
sI141
g3980
sI142
g4034
sI143
g4091
sI144
g4144
sI145
g4198
sI146
g4252
sI147
g4300
sI148
g4347
sI149
g4395
sI150
g4443
sI152
(dp4490
sI153
(dp4491
sI154
(dp4492
sI155
(dp4493
sI156
(dp4494
sI157
(dp4495
sI158
(dp4496
sI159
(dp4497
sI160
(dp4498
sI161
(dp4499
sI162
(dp4500
sI163
(dp4501
sI164
(dp4502
sI165
(dp4503
sI166
(dp4504
sI167
(dp4505
sI168
(dp4506
sI169
(dp4507
sI170
(dp4508
sI171
(dp4509
sI172
(dp4510
sI173
(dp4511
sI174
(dp4512
sI175
(dp4513
sI176
(dp4514
sI177
(dp4515
sI178
(dp4516
sI179
(dp4517
sI181
(dp4518
sI182
(dp4519
sI183
(dp4520
sI184
(dp4521
sI186
(dp4522
sI187
(dp4523
sI188
(dp4524
sI189
(dp4525
sI190
(dp4526
sI191
(dp4527
sI192
(dp4528
sI193
(dp4529
sI194
(dp4530
sI195
(dp4531
sI196
(dp4532
sI197
(dp4533
sI199
(dp4534
sI101
g2886
sI102
g2921
sI103
g2958
sI104
g2998
sI106
g3063
sI107
g3099
sI108
g3134
sI109
g3166
sI110
g3198
sI111
g3233
sI112
g3269
sI113
g3301
sI114
g3329
sI115
g3363
sI117
g3414
sI118
g3443
sI119
g3475
sI120
g3502
sI121
g3537
sI122
g3565
sI124
g3622
sI126
g3674
sI127
g3700
ssI152
(dp4535
I101
g2887
sI102
g2922
sI103
g2959
sI104
g2999
sI105
g3030
sI106
g3064
sI109
g3167
sI110
g3199
sI111
g3234
sI112
g3270
sI113
g3302
sI115
g3364
sI116
g3385
sI117
g3415
sI119
g3476
sI120
g3503
sI121
g3538
sI122
g3566
sI125
g3641
sI126
g3675
sI127
g3701
sI128
g3723
sI129
g3750
sI134
g3839
sI135
g3856
sI137
g3887
sI138
g3899
sI139
g3910
sI140
g3924
sI141
g3981
sI142
g4035
sI143
g4092
sI144
g4145
sI145
g4199
sI146
g4253
sI147
g4301
sI148
g4348
sI149
g4396
sI150
g4444
sI151
g4490
sI153
(dp4536
sI154
(dp4537
sI155
(dp4538
sI156
(dp4539
sI157
(dp4540
sI158
(dp4541
sI159
(dp4542
sI160
(dp4543
sI161
(dp4544
sI162
(dp4545
sI163
(dp4546
sI164
(dp4547
sI165
(dp4548
sI166
(dp4549
sI167
(dp4550
sI168
(dp4551
sI169
(dp4552
sI170
(dp4553
sI171
(dp4554
sI172
(dp4555
sI173
(dp4556
sI174
(dp4557
sI175
(dp4558
sI176
(dp4559
sI177
(dp4560
sI178
(dp4561
sI179
(dp4562
sI180
(dp4563
sI181
(dp4564
sI182
(dp4565
sI183
(dp4566
sI184
(dp4567
sI185
(dp4568
sI186
(dp4569
sI187
(dp4570
sI188
(dp4571
sI189
(dp4572
sI190
(dp4573
sI191
(dp4574
sI192
(dp4575
sI194
(dp4576
sI195
(dp4577
sI196
(dp4578
sI197
(dp4579
sI198
(dp4580
sI199
(dp4581
ssI153
(dp4582
I128
g3724
sI129
g3751
sI131
g3789
sI132
g3804
sI133
g3823
sI134
g3840
sI135
g3857
sI138
g3900
sI140
g3925
sI141
g3982
sI142
g4036
sI143
g4093
sI144
g4146
sI145
g4200
sI146
g4254
sI147
g4302
sI148
g4349
sI149
g4397
sI150
g4445
sI151
g4491
sI152
g4536
sI154
(dp4583
sI155
(dp4584
sI156
(dp4585
sI157
(dp4586
sI158
(dp4587
sI159
(dp4588
sI160
(dp4589
sI161
(dp4590
sI162
(dp4591
sI163
(dp4592
sI164
(dp4593
sI165
(dp4594
sI166
(dp4595
sI167
(dp4596
sI168
(dp4597
sI169
(dp4598
sI170
(dp4599
sI172
(dp4600
sI173
(dp4601
sI174
(dp4602
sI175
(dp4603
sI176
(dp4604
sI178
(dp4605
sI179
(dp4606
sI180
(dp4607
sI181
(dp4608
sI182
(dp4609
sI183
(dp4610
sI184
(dp4611
sI185
(dp4612
sI187
(dp4613
sI188
(dp4614
sI189
(dp4615
sI190
(dp4616
sI191
(dp4617
sI192
(dp4618
sI195
(dp4619
sI196
(dp4620
sI197
(dp4621
sI198
(dp4622
sI226
(dp4623
sI102
g2923
sI103
g2960
sI104
g3000
sI106
g3065
sI107
g3100
sI108
g3135
sI109
g3168
sI110
g3200
sI111
g3235
sI113
g3303
sI114
g3330
sI116
g3386
sI120
g3504
sI121
g3539
sI122
g3567
sI123
g3593
sI124
g3623
sI126
g3676
sI127
g3702
ssI154
(dp4624
I128
g3725
sI131
g3790
sI133
g3824
sI135
g3858
sI136
g3874
sI138
g3901
sI139
g3911
sI140
g3926
sI141
g3983
sI142
g4037
sI143
g4094
sI144
g4147
sI145
g4201
sI146
g4255
sI147
g4303
sI148
g4350
sI149
g4398
sI150
g4446
sI151
g4492
sI152
g4537
sI153
g4583
sI155
(dp4625
sI156
(dp4626
sI157
(dp4627
sI158
(dp4628
sI159
(dp4629
sI160
(dp4630
sI161
(dp4631
sI162
(dp4632
sI163
(dp4633
sI164
(dp4634
sI165
(dp4635
sI166
(dp4636
sI167
(dp4637
sI168
(dp4638
sI169
(dp4639
sI170
(dp4640
sI171
(dp4641
sI173
(dp4642
sI174
(dp4643
sI175
(dp4644
sI176
(dp4645
sI177
(dp4646
sI178
(dp4647
sI179
(dp4648
sI180
(dp4649
sI181
(dp4650
sI182
(dp4651
sI183
(dp4652
sI184
(dp4653
sI186
(dp4654
sI187
(dp4655
sI189
(dp4656
sI190
(dp4657
sI192
(dp4658
sI193
(dp4659
sI194
(dp4660
sI196
(dp4661
sI197
(dp4662
sI199
(dp4663
sI100
g2851
sI101
g2888
sI102
g2924
sI104
g3001
sI106
g3066
sI107
g3101
sI108
g3136
sI110
g3201
sI111
g3236
sI114
g3331
sI117
g3416
sI118
g3444
sI119
g3477
sI120
g3505
sI121
g3540
sI123
g3594
sI124
g3625
sI125
g3642
sI127
g3703
ssI155
(dp4664
I131
g3791
sI132
g3805
sI133
g3825
sI134
g3841
sI136
g3875
sI140
g3927
sI141
g3984
sI142
g4038
sI143
g4095
sI144
g4148
sI145
g4202
sI146
g4256
sI147
g4304
sI148
g4351
sI149
g4399
sI150
g4447
sI151
g4493
sI152
g4538
sI153
g4584
sI154
g4625
sI156
(dp4665
sI157
(dp4666
sI158
(dp4667
sI159
(dp4668
sI160
(dp4669
sI161
(dp4670
sI162
(dp4671
sI163
(dp4672
sI164
(dp4673
sI165
(dp4674
sI166
(dp4675
sI167
(dp4676
sI168
(dp4677
sI169
(dp4678
sI170
(dp4679
sI171
(dp4680
sI172
(dp4681
sI173
(dp4682
sI174
(dp4683
sI175
(dp4684
sI176
(dp4685
sI177
(dp4686
sI178
(dp4687
sI179
(dp4688
sI180
(dp4689
sI182
(dp4690
sI183
(dp4691
sI184
(dp4692
sI185
(dp4693
sI186
(dp4694
sI187
(dp4695
sI188
(dp4696
sI189
(dp4697
sI190
(dp4698
sI191
(dp4699
sI192
(dp4700
sI193
(dp4701
sI194
(dp4702
sI195
(dp4703
sI196
(dp4704
sI197
(dp4705
sI199
(dp4706
sI66
g2510
sI101
g2889
sI103
g2961
sI106
g3067
sI107
g3102
sI108
g3137
sI109
g3169
sI110
g3202
sI113
g3304
sI114
g3332
sI116
g3387
sI117
g3417
sI118
g3445
sI119
g3478
sI120
g3506
sI121
g3541
sI122
g3568
sI123
g3595
sI125
g3643
sI126
g3677
sI127
g3704
ssI156
(dp4707
I128
g3726
sI129
g3752
sI130
g3771
sI131
g3792
sI133
g3826
sI134
g3842
sI136
g3876
sI140
g3928
sI141
g3985
sI142
g4039
sI143
g4096
sI144
g4149
sI145
g4203
sI146
g4257
sI147
g4305
sI148
g4352
sI149
g4400
sI150
g4448
sI151
g4494
sI152
g4539
sI153
g4585
sI154
g4626
sI155
g4665
sI157
(dp4708
sI158
(dp4709
sI159
(dp4710
sI160
(dp4711
sI161
(dp4712
sI162
(dp4713
sI163
(dp4714
sI164
(dp4715
sI165
(dp4716
sI166
(dp4717
sI167
(dp4718
sI168
(dp4719
sI169
(dp4720
sI170
(dp4721
sI171
(dp4722
sI172
(dp4723
sI173
(dp4724
sI174
(dp4725
sI175
(dp4726
sI176
(dp4727
sI177
(dp4728
sI178
(dp4729
sI180
(dp4730
sI182
(dp4731
sI183
(dp4732
sI184
(dp4733
sI185
(dp4734
sI186
(dp4735
sI187
(dp4736
sI188
(dp4737
sI189
(dp4738
sI190
(dp4739
sI192
(dp4740
sI193
(dp4741
sI194
(dp4742
sI195
(dp4743
sI196
(dp4744
sI197
(dp4745
sI198
(dp4746
sI199
(dp4747
sI100
g2852
sI101
g2890
sI102
g2925
sI105
g3031
sI106
g3068
sI107
g3103
sI109
g3170
sI110
g3203
sI111
g3237
sI112
g3271
sI115
g3365
sI116
g3388
sI117
g3418
sI122
g3569
sI123
g3596
sI125
g3644
sI126
g3678
ssI157
(dp4748
I128
g3727
sI132
g3806
sI133
g3827
sI134
g3843
sI135
g3859
sI140
g3929
sI141
g3986
sI142
g4040
sI143
g4097
sI144
g4150
sI145
g4204
sI146
g4258
sI147
g4306
sI148
g4353
sI149
g4401
sI150
g4449
sI151
g4495
sI152
g4540
sI153
g4586
sI154
g4627
sI155
g4666
sI156
g4708
sI158
(dp4749
sI159
(dp4750
sI160
(dp4751
sI161
(dp4752
sI162
(dp4753
sI163
(dp4754
sI164
(dp4755
sI165
(dp4756
sI166
(dp4757
sI167
(dp4758
sI168
(dp4759
sI169
(dp4760
sI170
(dp4761
sI171
(dp4762
sI172
(dp4763
sI173
(dp4764
sI174
(dp4765
sI175
(dp4766
sI176
(dp4767
sI177
(dp4768
sI178
(dp4769
sI179
(dp4770
sI181
(dp4771
sI183
(dp4772
sI184
(dp4773
sI185
(dp4774
sI186
(dp4775
sI187
(dp4776
sI189
(dp4777
sI190
(dp4778
sI191
(dp4779
sI193
(dp4780
sI195
(dp4781
sI196
(dp4782
sI197
(dp4783
sI198
(dp4784
sI199
(dp4785
sI101
g2891
sI102
g2926
sI103
g2962
sI105
g3032
sI106
g3069
sI107
g3104
sI108
g3138
sI110
g3204
sI111
g3238
sI112
g3272
sI114
g3333
sI115
g3366
sI119
g3479
sI120
g3507
sI121
g3542
sI122
g3570
sI123
g3597
sI125
g3645
ssI158
(dp4786
I129
g3753
sI130
g3772
sI132
g3807
sI135
g3860
sI136
g3877
sI137
g3888
sI140
g3930
sI141
g3987
sI142
g4041
sI143
g4098
sI144
g4151
sI145
g4205
sI146
g4259
sI147
g4307
sI148
g4354
sI149
g4402
sI150
g4450
sI151
g4496
sI152
g4541
sI153
g4587
sI154
g4628
sI155
g4667
sI156
g4709
sI157
g4749
sI159
(dp4787
sI160
(dp4788
sI161
(dp4789
sI162
(dp4790
sI163
(dp4791
sI164
(dp4792
sI165
(dp4793
sI166
(dp4794
sI167
(dp4795
sI168
(dp4796
sI169
(dp4797
sI170
(dp4798
sI172
(dp4799
sI173
(dp4800
sI175
(dp4801
sI176
(dp4802
sI177
(dp4803
sI178
(dp4804
sI180
(dp4805
sI181
(dp4806
sI182
(dp4807
sI183
(dp4808
sI184
(dp4809
sI185
(dp4810
sI186
(dp4811
sI187
(dp4812
sI188
(dp4813
sI189
(dp4814
sI190
(dp4815
sI191
(dp4816
sI192
(dp4817
sI194
(dp4818
sI195
(dp4819
sI196
(dp4820
sI197
(dp4821
sI199
(dp4822
sI100
g2853
sI101
g2892
sI102
g2927
sI103
g2963
sI105
g3033
sI106
g3070
sI107
g3105
sI109
g3171
sI110
g3205
sI111
g3239
sI114
g3334
sI116
g3389
sI117
g3419
sI248
(dp4823
sI122
g3571
sI125
g3646
sI127
g3705
ssI159
(dp4824
I129
g3754
sI130
g3773
sI131
g3794
sI140
g3931
sI141
g3988
sI142
g4042
sI143
g4099
sI144
g4152
sI145
g4206
sI146
g4260
sI147
g4308
sI148
g4355
sI149
g4403
sI150
g4451
sI151
g4497
sI152
g4542
sI153
g4588
sI154
g4629
sI155
g4668
sI156
g4710
sI157
g4750
sI158
g4787
sI160
(dp4825
sI161
(dp4826
sI162
(dp4827
sI163
(dp4828
sI164
(dp4829
sI165
(dp4830
sI166
(dp4831
sI167
(dp4832
sI168
(dp4833
sI169
(dp4834
sI170
(dp4835
sI171
(dp4836
sI172
(dp4837
sI173
(dp4838
sI174
(dp4839
sI175
(dp4840
sI176
(dp4841
sI177
(dp4842
sI178
(dp4843
sI180
(dp4844
sI181
(dp4845
sI182
(dp4846
sI184
(dp4847
sI185
(dp4848
sI186
(dp4849
sI187
(dp4850
sI188
(dp4851
sI189
(dp4852
sI190
(dp4853
sI191
(dp4854
sI192
(dp4855
sI194
(dp4856
sI197
(dp4857
sI100
g2854
sI101
g2893
sI102
g2928
sI103
g2964
sI110
g3206
sI111
g3240
sI112
g3273
sI113
g3305
sI115
g3367
sI116
g3390
sI117
g3420
sI119
g3480
sI120
g3508
sI122
g3572
sI123
g3598
sI124
g3626
sI125
g3647
sI127
g3706
ssI160
(dp4858
I128
g3728
sI129
g3737
sI130
g3756
sI131
g3775
sI136
g3862
sI137
g3879
sI140
g3932
sI141
g3989
sI142
g4043
sI143
g4100
sI144
g4153
sI145
g4207
sI146
g4261
sI147
g4309
sI148
g4356
sI149
g4404
sI150
g4452
sI151
g4498
sI152
g4543
sI153
g4589
sI154
g4630
sI155
g4669
sI156
g4711
sI157
g4751
sI158
g4788
sI159
g4825
sI161
(dp4859
sI162
(dp4860
sI163
(dp4861
sI164
(dp4862
sI165
(dp4863
sI166
(dp4864
sI167
(dp4865
sI168
(dp4866
sI169
(dp4867
sI170
(dp4868
sI171
(dp4869
sI172
(dp4870
sI173
(dp4871
sI174
(dp4872
sI175
(dp4873
sI176
(dp4874
sI179
(dp4875
sI180
(dp4876
sI181
(dp4877
sI182
(dp4878
sI185
(dp4879
sI186
(dp4880
sI188
(dp4881
sI189
(dp4882
sI192
(dp4883
sI193
(dp4884
sI196
(dp4885
sI100
g2855
sI101
g2894
sI103
g2965
sI104
g3002
sI108
g3139
sI109
g3172
sI111
g3241
sI115
g3368
sI116
g3391
sI117
g3421
sI118
g3446
sI121
g3543
sI125
g3648
sI126
g3679
ssI161
(dp4886
I128
g3729
sI130
g3757
sI133
g3809
sI140
g3933
sI141
g3990
sI142
g4044
sI143
g4101
sI144
g4154
sI145
g4208
sI146
g4262
sI147
g4310
sI148
g4357
sI149
g4405
sI150
g4453
sI151
g4499
sI152
g4544
sI153
g4590
sI154
g4631
sI155
g4670
sI156
g4712
sI157
g4752
sI158
g4789
sI159
g4826
sI160
g4859
sI162
(dp4887
sI163
(dp4888
sI164
(dp4889
sI165
(dp4890
sI166
(dp4891
sI167
(dp4892
sI168
(dp4893
sI169
(dp4894
sI170
(dp4895
sI171
(dp4896
sI172
(dp4897
sI173
(dp4898
sI174
(dp4899
sI175
(dp4900
sI176
(dp4901
sI177
(dp4902
sI178
(dp4903
sI180
(dp4904
sI183
(dp4905
sI184
(dp4906
sI187
(dp4907
sI188
(dp4908
sI189
(dp4909
sI191
(dp4910
sI193
(dp4911
sI194
(dp4912
sI195
(dp4913
sI196
(dp4914
sI199
(dp4915
sI101
g2895
sI102
g2929
sI106
g3071
sI107
g3106
sI108
g3140
sI111
g3242
sI112
g3274
sI113
g3306
sI114
g3335
sI115
g3369
sI122
g3573
sI123
g3599
sI124
g3612
sI125
g3649
sI126
g3680
sI127
g3707
ssI162
(dp4916
I131
g3776
sI140
g3934
sI141
g3991
sI142
g4045
sI143
g4102
sI144
g4155
sI145
g4209
sI146
g4263
sI147
g4311
sI148
g4358
sI149
g4406
sI150
g4454
sI151
g4500
sI152
g4545
sI153
g4591
sI154
g4632
sI155
g4671
sI156
g4713
sI157
g4753
sI158
g4790
sI159
g4827
sI160
g4860
sI161
g4887
sI163
(dp4917
sI164
(dp4918
sI165
(dp4919
sI166
(dp4920
sI167
(dp4921
sI168
(dp4922
sI169
(dp4923
sI171
(dp4924
sI172
(dp4925
sI173
(dp4926
sI175
(dp4927
sI176
(dp4928
sI178
(dp4929
sI179
(dp4930
sI180
(dp4931
sI182
(dp4932
sI183
(dp4933
sI184
(dp4934
sI188
(dp4935
sI190
(dp4936
sI191
(dp4937
sI193
(dp4938
sI195
(dp4939
sI196
(dp4940
sI100
g2856
sI101
g2896
sI102
g2930
sI103
g2966
sI106
g3072
sI107
g3107
sI108
g3141
sI109
g3173
sI111
g3243
sI112
g3275
sI118
g3447
sI120
g3509
sI122
g3574
sI123
g3600
sI125
g3650
sI126
g3681
sI127
g3708
ssI163
(dp4941
I230
(dp4942
sI140
g3935
sI141
g3992
sI142
g4046
sI143
g4103
sI144
g4156
sI145
g4210
sI146
g4264
sI147
g4312
sI148
g4359
sI149
g4407
sI150
g4455
sI151
g4501
sI152
g4546
sI153
g4592
sI154
g4633
sI155
g4672
sI156
g4714
sI157
g4754
sI158
g4791
sI159
g4828
sI160
g4861
sI161
g4888
sI162
g4917
sI164
(dp4943
sI165
(dp4944
sI166
(dp4945
sI167
(dp4946
sI168
(dp4947
sI169
(dp4948
sI170
(dp4949
sI171
(dp4950
sI172
(dp4951
sI173
(dp4952
sI174
(dp4953
sI175
(dp4954
sI176
(dp4955
sI177
(dp4956
sI178
(dp4957
sI179
(dp4958
sI180
(dp4959
sI181
(dp4960
sI182
(dp4961
sI183
(dp4962
sI185
(dp4963
sI186
(dp4964
sI188
(dp4965
sI189
(dp4966
sI192
(dp4967
sI193
(dp4968
sI194
(dp4969
sI195
(dp4970
sI196
(dp4971
sI198
(dp4972
sI34
g1302
sI100
g2857
sI101
g2897
sI102
g2931
sI103
g2967
sI104
g3003
sI106
g3073
sI107
g3108
sI108
g3142
sI110
g3207
sI111
g3244
sI113
g3307
sI114
g3336
sI117
g3422
sI122
g3575
sI123
g3601
sI125
g3651
sI126
g3682
ssI164
(dp4973
I128
g3730
sI133
g3810
sI140
g3936
sI141
g3993
sI142
g4047
sI143
g4104
sI144
g4157
sI145
g4211
sI146
g4265
sI147
g4313
sI148
g4360
sI149
g4408
sI150
g4456
sI151
g4502
sI152
g4547
sI153
g4593
sI154
g4634
sI155
g4673
sI156
g4715
sI157
g4755
sI158
g4792
sI159
g4829
sI160
g4862
sI161
g4889
sI162
g4918
sI163
g4943
sI165
(dp4974
sI166
(dp4975
sI167
(dp4976
sI168
(dp4977
sI169
(dp4978
sI170
(dp4979
sI171
(dp4980
sI172
(dp4981
sI173
(dp4982
sI174
(dp4983
sI175
(dp4984
sI177
(dp4985
sI178
(dp4986
sI180
(dp4987
sI182
(dp4988
sI183
(dp4989
sI184
(dp4990
sI185
(dp4991
sI186
(dp4992
sI187
(dp4993
sI189
(dp4994
sI192
(dp4995
sI194
(dp4996
sI195
(dp4997
sI198
(dp4998
sI199
(dp4999
sI31
g1263
sI103
g2968
sI104
g3004
sI105
g3034
sI106
g3074
sI107
g3109
sI110
g3208
sI112
g3276
sI114
g3337
sI115
g3370
sI117
g3423
sI118
g3448
sI122
g3576
sI125
g3652
sI126
g3683
ssI165
(dp5000
I140
g3937
sI141
g3994
sI142
g4048
sI143
g4105
sI144
g4158
sI145
g4212
sI146
g4266
sI147
g4314
sI148
g4361
sI149
g4409
sI150
g4457
sI151
g4503
sI152
g4548
sI153
g4594
sI154
g4635
sI155
g4674
sI156
g4716
sI157
g4756
sI158
g4793
sI159
g4830
sI160
g4863
sI161
g4890
sI162
g4919
sI163
g4944
sI164
g4974
sI166
(dp5001
sI167
(dp5002
sI168
(dp5003
sI169
(dp5004
sI170
(dp5005
sI171
(dp5006
sI172
(dp5007
sI173
(dp5008
sI174
(dp5009
sI175
(dp5010
sI176
(dp5011
sI177
(dp5012
sI178
(dp5013
sI179
(dp5014
sI180
(dp5015
sI181
(dp5016
sI182
(dp5017
sI183
(dp5018
sI184
(dp5019
sI185
(dp5020
sI186
(dp5021
sI188
(dp5022
sI189
(dp5023
sI191
(dp5024
sI192
(dp5025
sI194
(dp5026
sI195
(dp5027
sI199
(dp5028
sI102
g2932
sI103
g2969
sI104
g3005
sI105
g3035
sI106
g3075
sI107
g3110
sI108
g3143
sI111
g3245
sI113
g3308
sI114
g3338
sI116
g3392
sI117
g3424
sI118
g3449
sI119
g3481
sI122
g3577
ssI166
(dp5029
I140
g3938
sI141
g3995
sI142
g4049
sI143
g4106
sI144
g4159
sI145
g4213
sI146
g4267
sI147
g4315
sI148
g4362
sI149
g4410
sI150
g4458
sI151
g4504
sI152
g4549
sI153
g4595
sI154
g4636
sI155
g4675
sI156
g4717
sI157
g4757
sI158
g4794
sI159
g4831
sI160
g4864
sI161
g4891
sI162
g4920
sI163
g4945
sI164
g4975
sI165
g5001
sI167
(dp5030
sI168
(dp5031
sI169
(dp5032
sI170
(dp5033
sI171
(dp5034
sI172
(dp5035
sI173
(dp5036
sI174
(dp5037
sI175
(dp5038
sI176
(dp5039
sI177
(dp5040
sI178
(dp5041
sI179
(dp5042
sI180
(dp5043
sI181
(dp5044
sI182
(dp5045
sI183
(dp5046
sI184
(dp5047
sI185
(dp5048
sI188
(dp5049
sI190
(dp5050
sI191
(dp5051
sI193
(dp5052
sI194
(dp5053
sI195
(dp5054
sI196
(dp5055
sI197
(dp5056
sI199
(dp5057
sI100
g2858
sI101
g2898
sI103
g2970
sI104
g3006
sI107
g3111
sI108
g3144
sI110
g3209
sI111
g3246
sI114
g3339
sI118
g3450
sI120
g3510
sI121
g3544
sI123
g3602
sI125
g3653
ssI167
(dp5058
I140
g3939
sI141
g3996
sI142
g4050
sI143
g4107
sI144
g4160
sI145
g4214
sI146
g4268
sI147
g4316
sI148
g4363
sI149
g4411
sI150
g4459
sI151
g4505
sI152
g4550
sI153
g4596
sI154
g4637
sI155
g4676
sI156
g4718
sI157
g4758
sI158
g4795
sI159
g4832
sI160
g4865
sI161
g4892
sI162
g4921
sI163
g4946
sI164
g4976
sI165
g5002
sI166
g5030
sI168
(dp5059
sI169
(dp5060
sI170
(dp5061
sI171
(dp5062
sI172
(dp5063
sI173
(dp5064
sI174
(dp5065
sI175
(dp5066
sI176
(dp5067
sI178
(dp5068
sI179
(dp5069
sI181
(dp5070
sI183
(dp5071
sI185
(dp5072
sI186
(dp5073
sI187
(dp5074
sI188
(dp5075
sI190
(dp5076
sI192
(dp5077
sI193
(dp5078
sI194
(dp5079
sI196
(dp5080
sI100
g2859
sI101
g2899
sI102
g2933
sI103
g2971
sI105
g3036
sI108
g3145
sI109
g3174
sI110
g3210
sI111
g3247
sI116
g3393
sI119
g3482
sI120
g3511
sI123
g3603
sI255
(dp5081
ssI168
(dp5082
I128
g3731
sI129
g3738
sI140
g3940
sI141
g3997
sI142
g4051
sI143
g4108
sI144
g4161
sI145
g4215
sI146
g4269
sI147
g4317
sI148
g4364
sI149
g4412
sI150
g4460
sI151
g4506
sI152
g4551
sI153
g4597
sI154
g4638
sI155
g4677
sI156
g4719
sI157
g4759
sI158
g4796
sI159
g4833
sI160
g4866
sI161
g4893
sI162
g4922
sI163
g4947
sI164
g4977
sI165
g5003
sI166
g5031
sI167
g5059
sI169
(dp5083
sI170
(dp5084
sI171
(dp5085
sI172
(dp5086
sI174
(dp5087
sI175
(dp5088
sI176
(dp5089
sI177
(dp5090
sI178
(dp5091
sI180
(dp5092
sI181
(dp5093
sI183
(dp5094
sI184
(dp5095
sI185
(dp5096
sI186
(dp5097
sI187
(dp5098
sI188
(dp5099
sI193
(dp5100
sI194
(dp5101
sI195
(dp5102
sI196
(dp5103
sI197
(dp5104
sI198
(dp5105
sI100
g2860
sI102
g2934
sI103
g2972
sI108
g3146
sI110
g3211
sI111
g3248
sI114
g3340
sI116
g3394
sI119
g3483
sI127
g3709
ssI169
(dp5106
I140
g3941
sI141
g3998
sI142
g4052
sI143
g4109
sI144
g4162
sI145
g4216
sI146
g4270
sI147
g4318
sI148
g4365
sI149
g4413
sI150
g4461
sI151
g4507
sI152
g4552
sI153
g4598
sI154
g4639
sI155
g4678
sI156
g4720
sI157
g4760
sI158
g4797
sI159
g4834
sI160
g4867
sI161
g4894
sI162
g4923
sI163
g4948
sI164
g4978
sI165
g5004
sI166
g5032
sI167
g5060
sI168
g5083
sI170
(dp5107
sI171
(dp5108
sI172
(dp5109
sI173
(dp5110
sI175
(dp5111
sI176
(dp5112
sI177
(dp5113
sI178
(dp5114
sI179
(dp5115
sI183
(dp5116
sI185
(dp5117
sI186
(dp5118
sI187
(dp5119
sI189
(dp5120
sI191
(dp5121
sI192
(dp5122
sI195
(dp5123
sI290
(dp5124
sI100
g2861
sI102
g2935
sI103
g2973
sI110
g3212
sI113
g3309
sI114
g3341
sI115
g3371
sI117
g3425
sI120
g3512
sI122
g3578
sI123
g3604
ssI170
(dp5125
I129
g3739
sI130
g3759
sI140
g3942
sI141
g3999
sI142
g4053
sI143
g4110
sI144
g4163
sI145
g4217
sI146
g4271
sI147
g4319
sI148
g4366
sI149
g4414
sI150
g4462
sI151
g4508
sI152
g4553
sI153
g4599
sI154
g4640
sI155
g4679
sI156
g4721
sI157
g4761
sI158
g4798
sI159
g4835
sI160
g4868
sI161
g4895
sI163
g4949
sI164
g4979
sI165
g5005
sI166
g5033
sI167
g5061
sI168
g5084
sI169
g5107
sI171
(dp5126
sI173
(dp5127
sI174
(dp5128
sI175
(dp5129
sI177
(dp5130
sI178
(dp5131
sI179
(dp5132
sI186
(dp5133
sI190
(dp5134
sI193
(dp5135
sI195
(dp5136
sI199
(dp5137
sI103
g2974
sI105
g3037
sI110
g3213
sI111
g3249
sI113
g3310
sI114
g3342
sI119
g3484
sI120
g3513
sI121
g3545
ssI171
(dp5138
I140
g3943
sI141
g4000
sI142
g4054
sI143
g4111
sI144
g4164
sI145
g4218
sI146
g4272
sI147
g4320
sI148
g4367
sI149
g4415
sI150
g4463
sI151
g4509
sI152
g4554
sI154
g4641
sI155
g4680
sI156
g4722
sI157
g4762
sI159
g4836
sI160
g4869
sI161
g4896
sI162
g4924
sI163
g4950
sI164
g4980
sI165
g5006
sI166
g5034
sI167
g5062
sI168
g5085
sI169
g5108
sI170
g5126
sI172
(dp5139
sI173
(dp5140
sI174
(dp5141
sI175
(dp5142
sI177
(dp5143
sI178
(dp5144
sI179
(dp5145
sI180
(dp5146
sI181
(dp5147
sI182
(dp5148
sI183
(dp5149
sI184
(dp5150
sI188
(dp5151
sI189
(dp5152
sI190
(dp5153
sI192
(dp5154
sI193
(dp5155
sI194
(dp5156
sI195
(dp5157
sI196
(dp5158
sI199
(dp5159
sI100
g2862
sI104
g3007
sI105
g3038
sI110
g3214
sI111
g3250
sI112
g3277
sI115
g3372
sI118
g3451
sI121
g3546
sI123
g3605
sI125
g3654
ssI172
(dp5160
I140
g3944
sI141
g4001
sI142
g4055
sI143
g4112
sI144
g4165
sI145
g4219
sI146
g4273
sI147
g4321
sI148
g4368
sI149
g4416
sI150
g4464
sI151
g4510
sI152
g4555
sI153
g4600
sI155
g4681
sI156
g4723
sI157
g4763
sI158
g4799
sI159
g4837
sI160
g4870
sI161
g4897
sI162
g4925
sI163
g4951
sI164
g4981
sI165
g5007
sI166
g5035
sI167
g5063
sI168
g5086
sI169
g5109
sI171
g5139
sI173
(dp5161
sI175
(dp5162
sI176
(dp5163
sI177
(dp5164
sI178
(dp5165
sI179
(dp5166
sI180
(dp5167
sI183
(dp5168
sI184
(dp5169
sI188
(dp5170
sI191
(dp5171
sI192
(dp5172
sI193
(dp5173
sI194
(dp5174
sI195
(dp5175
sI196
(dp5176
sI199
(dp5177
sI100
g2863
sI102
g2936
sI103
g2975
sI105
g3039
sI106
g3076
sI108
g3147
sI109
g3175
sI112
g3278
sI113
g3311
sI114
g3343
ssI173
(dp5178
I140
g3945
sI141
g4002
sI142
g4056
sI143
g4113
sI144
g4166
sI145
g4220
sI146
g4274
sI147
g4322
sI148
g4369
sI149
g4417
sI150
g4465
sI151
g4511
sI152
g4556
sI153
g4601
sI154
g4642
sI155
g4682
sI156
g4724
sI157
g4764
sI158
g4800
sI159
g4838
sI160
g4871
sI161
g4898
sI162
g4926
sI163
g4952
sI164
g4982
sI165
g5008
sI166
g5036
sI167
g5064
sI169
g5110
sI170
g5127
sI171
g5140
sI172
g5161
sI174
(dp5179
sI176
(dp5180
sI178
(dp5181
sI179
(dp5182
sI181
(dp5183
sI182
(dp5184
sI184
(dp5185
sI185
(dp5186
sI186
(dp5187
sI188
(dp5188
sI191
(dp5189
sI192
(dp5190
sI193
(dp5191
sI195
(dp5192
sI196
(dp5193
sI198
(dp5194
sI100
g2864
sI101
g2900
sI107
g3112
sI109
g3176
sI111
g3251
sI112
g3279
sI117
g3426
sI118
g3452
ssI174
(dp5195
I140
g3946
sI141
g4003
sI142
g4057
sI143
g4114
sI144
g4167
sI145
g4221
sI146
g4275
sI147
g4323
sI148
g4370
sI149
g4418
sI151
g4512
sI152
g4557
sI153
g4602
sI154
g4643
sI155
g4683
sI156
g4725
sI157
g4765
sI159
g4839
sI160
g4872
sI161
g4899
sI163
g4953
sI164
g4983
sI165
g5009
sI166
g5037
sI167
g5065
sI168
g5087
sI170
g5128
sI171
g5141
sI173
g5179
sI175
(dp5196
sI176
(dp5197
sI177
(dp5198
sI179
(dp5199
sI183
(dp5200
sI186
(dp5201
sI187
(dp5202
sI188
(dp5203
sI189
(dp5204
sI191
(dp5205
sI192
(dp5206
sI195
(dp5207
sI197
(dp5208
sI219
(dp5209
sI102
g2937
sI104
g3008
sI105
g3040
sI109
g3177
sI111
g3252
sI113
g3312
sI117
g3427
sI120
g3514
sI122
g3579
sI123
g3606
sI126
g3684
ssI175
(dp5210
I140
g3947
sI141
g4004
sI142
g4058
sI143
g4115
sI144
g4168
sI145
g4222
sI146
g4276
sI147
g4324
sI148
g4371
sI149
g4419
sI150
g4466
sI151
g4513
sI152
g4558
sI153
g4603
sI154
g4644
sI155
g4684
sI156
g4726
sI157
g4766
sI158
g4801
sI159
g4840
sI160
g4873
sI161
g4900
sI162
g4927
sI163
g4954
sI164
g4984
sI165
g5010
sI166
g5038
sI167
g5066
sI168
g5088
sI169
g5111
sI170
g5129
sI171
g5142
sI172
g5162
sI174
g5196
sI179
(dp5211
sI180
(dp5212
sI181
(dp5213
sI183
(dp5214
sI188
(dp5215
sI192
(dp5216
sI195
(dp5217
sI100
g2865
sI103
g2976
sI104
g3009
sI106
g3077
sI110
g3215
sI111
g3253
ssI176
(dp5218
I140
g3948
sI141
g4005
sI142
g4059
sI143
g4116
sI144
g4169
sI145
g4223
sI146
g4277
sI147
g4325
sI148
g4372
sI149
g4420
sI150
g4467
sI151
g4514
sI152
g4559
sI153
g4604
sI154
g4645
sI155
g4685
sI156
g4727
sI157
g4767
sI158
g4802
sI159
g4841
sI160
g4874
sI161
g4901
sI162
g4928
sI163
g4955
sI165
g5011
sI166
g5039
sI167
g5067
sI168
g5089
sI169
g5112
sI172
g5163
sI173
g5180
sI174
g5197
sI177
(dp5219
sI178
(dp5220
sI179
(dp5221
sI181
(dp5222
sI183
(dp5223
sI186
(dp5224
sI188
(dp5225
sI189
(dp5226
sI192
(dp5227
sI195
(dp5228
sI197
(dp5229
sI198
(dp5230
sI100
g2866
sI101
g2901
sI103
g2977
sI106
g3078
sI108
g3148
sI109
g3178
sI111
g3254
sI113
g3313
ssI177
(dp5231
I128
g3732
sI131
g3783
sI142
g4060
sI144
g4170
sI145
g4224
sI146
g4278
sI147
g4326
sI148
g4373
sI149
g4421
sI150
g4468
sI151
g4515
sI152
g4560
sI154
g4646
sI155
g4686
sI156
g4728
sI157
g4768
sI158
g4803
sI159
g4842
sI161
g4902
sI163
g4956
sI164
g4985
sI165
g5012
sI166
g5040
sI168
g5090
sI169
g5113
sI170
g5130
sI171
g5143
sI172
g5164
sI174
g5198
sI176
g5219
sI180
(dp5232
sI184
(dp5233
sI186
(dp5234
sI187
(dp5235
sI188
(dp5236
sI189
(dp5237
sI190
(dp5238
sI192
(dp5239
sI193
(dp5240
sI194
(dp5241
sI196
(dp5242
sI197
(dp5243
sI199
(dp5244
sI100
g2867
sI101
g2902
sI112
g3280
sI114
g3344
sI117
g3428
sI118
g3453
sI119
g3485
sI120
g3515
sI126
g3685
sI127
g3710
ssI178
(dp5245
I140
g3949
sI141
g4006
sI142
g4061
sI143
g4117
sI144
g4171
sI145
g4225
sI146
g4279
sI147
g4327
sI148
g4374
sI149
g4422
sI150
g4469
sI151
g4516
sI152
g4561
sI153
g4605
sI154
g4647
sI155
g4687
sI156
g4729
sI157
g4769
sI158
g4804
sI159
g4843
sI161
g4903
sI162
g4929
sI163
g4957
sI164
g4986
sI165
g5013
sI166
g5041
sI167
g5068
sI168
g5091
sI169
g5114
sI170
g5131
sI171
g5144
sI172
g5165
sI173
g5181
sI176
g5220
sI179
(dp5246
sI180
(dp5247
sI183
(dp5248
sI184
(dp5249
sI187
(dp5250
sI195
(dp5251
sI196
(dp5252
sI100
g2868
sI104
g3010
sI106
g3079
sI107
g3113
sI110
g3216
sI114
g3345
ssI179
(dp5253
I140
g3950
sI141
g4007
sI142
g4062
sI143
g4118
sI144
g4172
sI145
g4226
sI146
g4280
sI147
g4328
sI148
g4375
sI149
g4423
sI150
g4470
sI151
g4517
sI152
g4562
sI153
g4606
sI154
g4648
sI155
g4688
sI157
g4770
sI160
g4875
sI162
g4930
sI163
g4958
sI165
g5014
sI166
g5042
sI167
g5069
sI169
g5115
sI170
g5132
sI171
g5145
sI172
g5166
sI173
g5182
sI174
g5199
sI175
g5211
sI176
g5221
sI178
g5246
sI181
(dp5254
sI183
(dp5255
sI191
(dp5256
sI198
(dp5257
sI103
g2978
sI104
g3011
sI105
g3041
sI106
g3080
sI114
g3346
sI118
g3454
sI120
g3516
sI121
g3547
ssI180
(dp5258
I140
g3951
sI141
g4008
sI142
g4063
sI143
g4119
sI144
g4173
sI145
g4227
sI146
g4281
sI147
g4329
sI148
g4376
sI149
g4424
sI150
g4471
sI152
g4563
sI153
g4607
sI154
g4649
sI155
g4689
sI156
g4730
sI158
g4805
sI159
g4844
sI160
g4876
sI161
g4904
sI162
g4931
sI163
g4959
sI164
g4987
sI165
g5015
sI166
g5043
sI168
g5092
sI171
g5146
sI172
g5167
sI175
g5212
sI177
g5232
sI178
g5247
sI181
(dp5259
sI183
(dp5260
sI184
(dp5261
sI187
(dp5262
sI190
(dp5263
sI191
(dp5264
sI194
(dp5265
sI196
(dp5266
sI198
(dp5267
sI199
(dp5268
sI101
g2903
sI102
g2938
sI103
g2979
sI104
g3012
sI108
g3149
sI112
g3281
sI119
g3486
sI124
g3624
sI125
g3655
ssI181
(dp5269
I134
g3838
sI140
g3952
sI142
g4064
sI143
g4120
sI144
g4174
sI145
g4228
sI147
g4330
sI148
g4377
sI149
g4425
sI151
g4518
sI152
g4564
sI153
g4608
sI154
g4650
sI157
g4771
sI158
g4806
sI159
g4845
sI160
g4877
sI163
g4960
sI165
g5016
sI166
g5044
sI167
g5070
sI168
g5093
sI171
g5147
sI173
g5183
sI175
g5213
sI176
g5222
sI179
g5254
sI180
g5259
sI183
(dp5270
sI184
(dp5271
sI185
(dp5272
sI191
(dp5273
sI193
(dp5274
sI196
(dp5275
sI197
(dp5276
sI199
(dp5277
sI100
g2869
sI102
g2939
sI103
g2980
sI104
g3013
sI105
g3042
sI106
g3081
sI107
g3114
sI108
g3150
sI111
g3255
sI119
g3487
sI120
g3517
sI124
g3628
ssI182
(dp5278
I128
g3733
sI130
g3768
sI131
g3787
sI136
g3872
sI140
g3953
sI141
g4009
sI142
g4065
sI143
g4121
sI144
g4175
sI145
g4229
sI146
g4282
sI148
g4378
sI149
g4426
sI150
g4472
sI151
g4519
sI152
g4565
sI153
g4609
sI154
g4651
sI155
g4690
sI156
g4731
sI158
g4807
sI159
g4846
sI160
g4878
sI162
g4932
sI163
g4961
sI164
g4988
sI165
g5017
sI166
g5045
sI171
g5148
sI173
g5184
sI184
(dp5279
sI185
(dp5280
sI190
(dp5281
sI193
(dp5282
sI194
(dp5283
sI196
(dp5284
sI197
(dp5285
sI100
g2870
sI106
g3082
sI107
g3115
sI114
g3347
sI116
g3395
sI118
g3455
sI122
g3580
sI127
g3711
ssI183
(dp5286
I140
g3954
sI141
g4010
sI142
g4066
sI143
g4122
sI144
g4176
sI145
g4230
sI146
g4283
sI147
g4331
sI148
g4379
sI150
g4473
sI151
g4520
sI152
g4566
sI153
g4610
sI154
g4652
sI155
g4691
sI156
g4732
sI157
g4772
sI158
g4808
sI161
g4905
sI162
g4933
sI163
g4962
sI164
g4989
sI165
g5018
sI166
g5046
sI167
g5071
sI168
g5094
sI169
g5116
sI171
g5149
sI172
g5168
sI174
g5200
sI175
g5214
sI176
g5223
sI178
g5248
sI179
g5255
sI180
g5260
sI181
g5270
sI186
(dp5287
sI187
(dp5288
sI198
(dp5289
sI199
(dp5290
sI102
g2940
sI103
g2981
sI105
g3043
sI106
g3083
ssI184
(dp5291
I140
g3955
sI141
g4011
sI142
g4067
sI143
g4123
sI144
g4177
sI145
g4231
sI146
g4284
sI147
g4332
sI148
g4380
sI149
g4427
sI151
g4521
sI152
g4567
sI153
g4611
sI154
g4653
sI155
g4692
sI156
g4733
sI157
g4773
sI158
g4809
sI159
g4847
sI161
g4906
sI162
g4934
sI164
g4990
sI165
g5019
sI166
g5047
sI168
g5095
sI171
g5150
sI172
g5169
sI173
g5185
sI177
g5233
sI178
g5249
sI180
g5261
sI181
g5271
sI182
g5279
sI191
(dp5292
sI194
(dp5293
sI106
g3084
sI107
g3116
sI108
g3151
sI110
g3217
sI111
g3256
sI112
g3282
sI118
g3456
ssI185
(dp5294
I140
g3956
sI141
g4012
sI142
g4068
sI143
g4124
sI144
g4178
sI145
g4232
sI146
g4285
sI148
g4381
sI149
g4428
sI150
g4474
sI152
g4568
sI153
g4612
sI155
g4693
sI156
g4734
sI157
g4774
sI158
g4810
sI159
g4848
sI160
g4879
sI163
g4963
sI164
g4991
sI165
g5020
sI166
g5048
sI167
g5072
sI168
g5096
sI169
g5117
sI173
g5186
sI181
g5272
sI182
g5280
sI187
(dp5295
sI188
(dp5296
sI189
(dp5297
sI190
(dp5298
sI191
(dp5299
sI192
(dp5300
sI195
(dp5301
sI197
(dp5302
sI198
(dp5303
sI103
g2982
sI104
g3014
sI106
g3085
sI107
g3117
sI108
g3152
sI110
g3218
sI111
g3257
sI112
g3283
sI114
g3348
sI116
g3396
sI120
g3518
sI121
g3548
sI63
g2443
ssI186
(dp5304
I140
g3957
sI141
g4013
sI142
g4069
sI143
g4125
sI144
g4179
sI145
g4233
sI146
g4286
sI147
g4333
sI148
g4382
sI149
g4429
sI150
g4475
sI151
g4522
sI152
g4569
sI154
g4654
sI155
g4694
sI156
g4735
sI157
g4775
sI158
g4811
sI159
g4849
sI160
g4880
sI163
g4964
sI164
g4992
sI165
g5021
sI167
g5073
sI168
g5097
sI169
g5118
sI170
g5133
sI173
g5187
sI174
g5201
sI176
g5224
sI177
g5234
sI183
g5287
sI188
(dp5305
sI189
(dp5306
sI192
(dp5307
sI196
(dp5308
sI197
(dp5309
sI198
(dp5310
sI101
g2904
sI102
g2941
sI105
g3044
sI106
g3086
sI108
g3153
sI109
g3179
sI117
g3429
sI121
g3549
ssI187
(dp5311
I140
g3958
sI141
g4014
sI142
g4070
sI143
g4126
sI144
g4180
sI145
g4234
sI146
g4287
sI147
g4334
sI148
g4383
sI149
g4430
sI150
g4476
sI151
g4523
sI152
g4570
sI153
g4613
sI154
g4655
sI155
g4695
sI156
g4736
sI157
g4776
sI158
g4812
sI159
g4850
sI161
g4907
sI164
g4993
sI167
g5074
sI168
g5098
sI169
g5119
sI174
g5202
sI177
g5235
sI178
g5250
sI180
g5262
sI183
g5288
sI185
g5295
sI189
(dp5312
sI190
(dp5313
sI197
(dp5314
sI102
g2942
sI104
g3015
sI105
g3045
sI108
g3154
sI114
g3349
sI123
g3607
sI125
g3656
sI126
g3686
sI127
g3712
ssI188
(dp5315
I259
(dp5316
sI140
g3959
sI142
g4071
sI143
g4127
sI144
g4181
sI145
g4235
sI146
g4288
sI147
g4335
sI148
g4384
sI149
g4431
sI150
g4477
sI151
g4524
sI152
g4571
sI153
g4614
sI155
g4696
sI156
g4737
sI158
g4813
sI159
g4851
sI160
g4881
sI161
g4908
sI162
g4935
sI163
g4965
sI165
g5022
sI166
g5049
sI167
g5075
sI168
g5099
sI171
g5151
sI172
g5170
sI173
g5188
sI174
g5203
sI175
g5215
sI176
g5225
sI177
g5236
sI185
g5296
sI186
g5305
sI196
(dp5317
sI198
(dp5318
sI101
g2905
sI109
g3180
sI111
g3258
sI112
g3284
sI113
g3314
sI120
g3519
ssI189
(dp5319
I128
g3734
sI141
g4015
sI142
g4072
sI143
g4128
sI144
g4182
sI145
g4236
sI146
g4289
sI147
g4336
sI149
g4432
sI150
g4478
sI151
g4525
sI152
g4572
sI153
g4615
sI154
g4656
sI155
g4697
sI156
g4738
sI157
g4777
sI158
g4814
sI159
g4852
sI160
g4882
sI161
g4909
sI163
g4966
sI164
g4994
sI165
g5023
sI169
g5120
sI171
g5152
sI174
g5204
sI176
g5226
sI177
g5237
sI185
g5297
sI186
g5306
sI187
g5312
sI192
(dp5320
sI197
(dp5321
sI198
(dp5322
sI100
g2871
sI230
(dp5323
sI102
g2943
sI103
g2983
sI110
g3219
sI111
g3259
sI114
g3350
sI117
g3430
sI125
g3657
ssI190
(dp5324
I131
g3793
sI140
g3960
sI141
g4016
sI142
g4073
sI143
g4129
sI144
g4183
sI145
g4237
sI147
g4337
sI148
g4385
sI150
g4479
sI151
g4526
sI152
g4573
sI153
g4616
sI154
g4657
sI155
g4698
sI156
g4739
sI157
g4778
sI158
g4815
sI159
g4853
sI162
g4936
sI166
g5050
sI167
g5076
sI170
g5134
sI171
g5153
sI177
g5238
sI180
g5263
sI182
g5281
sI185
g5298
sI187
g5313
sI191
(dp5325
sI193
(dp5326
sI197
(dp5327
sI199
(dp5328
sI218
(dp5329
sI100
g2872
sI103
g2984
sI104
g3016
sI107
g3118
sI112
g3285
sI116
g3397
sI120
g3520
sI123
g3608
sI124
g3627
sI125
g3658
ssI191
(dp5330
I140
g3961
sI141
g4017
sI142
g4074
sI143
g4130
sI144
g4184
sI145
g4238
sI146
g4290
sI147
g4338
sI148
g4386
sI149
g4433
sI150
g4480
sI151
g4527
sI152
g4574
sI153
g4617
sI155
g4699
sI157
g4779
sI158
g4816
sI159
g4854
sI161
g4910
sI162
g4937
sI165
g5024
sI166
g5051
sI169
g5121
sI172
g5171
sI173
g5189
sI174
g5205
sI179
g5256
sI180
g5264
sI181
g5273
sI184
g5292
sI185
g5299
sI190
g5325
sI192
(dp5331
sI194
(dp5332
sI198
(dp5333
sI96
g2833
sI104
g3017
sI105
g3046
sI107
g3119
sI109
g3181
sI111
g3260
sI112
g3286
sI116
g3398
sI120
g3521
ssI192
(dp5334
I140
g3962
sI141
g4018
sI142
g4075
sI143
g4131
sI144
g4185
sI145
g4239
sI146
g4291
sI148
g4387
sI149
g4434
sI150
g4481
sI151
g4528
sI152
g4575
sI153
g4618
sI154
g4658
sI155
g4700
sI156
g4740
sI158
g4817
sI159
g4855
sI160
g4883
sI163
g4967
sI164
g4995
sI165
g5025
sI167
g5077
sI169
g5122
sI171
g5154
sI172
g5172
sI173
g5190
sI174
g5206
sI175
g5216
sI176
g5227
sI177
g5239
sI185
g5300
sI186
g5307
sI189
g5320
sI191
g5331
sI194
(dp5335
sI197
(dp5336
sI198
(dp5337
sI199
(dp5338
sI104
g3018
sI109
g3182
sI116
g3399
sI117
g3431
sI118
g3457
ssI193
(dp5339
I140
g3963
sI141
g4019
sI143
g4132
sI144
g4186
sI145
g4240
sI146
g4292
sI147
g4339
sI148
g4388
sI149
g4435
sI150
g4482
sI151
g4529
sI154
g4659
sI155
g4701
sI156
g4741
sI157
g4780
sI160
g4884
sI161
g4911
sI162
g4938
sI163
g4968
sI166
g5052
sI167
g5078
sI168
g5100
sI170
g5135
sI171
g5155
sI172
g5173
sI173
g5191
sI177
g5240
sI181
g5274
sI182
g5282
sI190
g5326
sI195
(dp5340
sI198
(dp5341
sI199
(dp5342
sI100
g2873
sI103
g2985
sI105
g3047
sI109
g3183
sI113
g3315
sI118
g3458
sI119
g3488
sI123
g3609
sI125
g3659
ssI194
(dp5343
I140
g3964
sI141
g4020
sI142
g4076
sI143
g4133
sI144
g4187
sI145
g4241
sI148
g4389
sI150
g4483
sI151
g4530
sI152
g4576
sI154
g4660
sI155
g4702
sI156
g4742
sI26
g1158
sI158
g4818
sI159
g4856
sI161
g4912
sI163
g4969
sI164
g4996
sI165
g5026
sI166
g5053
sI167
g5079
sI168
g5101
sI171
g5156
sI172
g5174
sI177
g5241
sI180
g5265
sI182
g5283
sI184
g5293
sI191
g5332
sI192
g5335
sI196
(dp5344
sI197
(dp5345
sI198
(dp5346
sI199
(dp5347
sI102
g2944
sI105
g3048
sI107
g3120
sI112
g3287
sI116
g3400
sI117
g3432
sI118
g3459
sI120
g3522
sI121
g3550
sI123
g3610
ssI195
(dp5348
I140
g3965
sI142
g4077
sI143
g4134
sI144
g4188
sI145
g4242
sI146
g4293
sI147
g4340
sI148
g4390
sI149
g4436
sI150
g4484
sI151
g4531
sI152
g4577
sI153
g4619
sI155
g4703
sI156
g4743
sI157
g4781
sI158
g4819
sI161
g4913
sI162
g4939
sI163
g4970
sI164
g4997
sI165
g5027
sI166
g5054
sI168
g5102
sI169
g5123
sI170
g5136
sI171
g5157
sI172
g5175
sI173
g5192
sI174
g5207
sI175
g5217
sI176
g5228
sI178
g5251
sI185
g5301
sI193
g5340
sI105
g3049
sI107
g3121
sI109
g3184
sI111
g3261
sI114
g3351
ssI196
(dp5349
I140
g3966
sI141
g4021
sI142
g4078
sI143
g4135
sI144
g4189
sI145
g4243
sI147
g4341
sI148
g4391
sI149
g4437
sI150
g4485
sI151
g4532
sI152
g4578
sI153
g4620
sI154
g4661
sI155
g4704
sI156
g4744
sI157
g4782
sI158
g4820
sI160
g4885
sI161
g4914
sI162
g4940
sI163
g4971
sI166
g5055
sI167
g5080
sI168
g5103
sI171
g5158
sI172
g5176
sI173
g5193
sI177
g5242
sI178
g5252
sI180
g5266
sI181
g5275
sI182
g5284
sI186
g5308
sI188
g5317
sI194
g5344
sI100
g2874
sI101
g2906
sI107
g3122
sI109
g3185
sI39
g1380
ssI197
(dp5350
I140
g3967
sI141
g4022
sI142
g4079
sI144
g4190
sI145
g4244
sI146
g4294
sI147
g4342
sI149
g4438
sI150
g4486
sI151
g4533
sI152
g4579
sI153
g4621
sI154
g4662
sI155
g4705
sI156
g4745
sI157
g4783
sI158
g4821
sI159
g4857
sI166
g5056
sI168
g5104
sI174
g5208
sI176
g5229
sI177
g5243
sI181
g5276
sI182
g5285
sI185
g5302
sI186
g5309
sI187
g5314
sI189
g5321
sI190
g5327
sI192
g5336
sI194
g5345
sI198
(dp5351
sI199
(dp5352
sI101
g2907
sI102
g2945
sI103
g2986
sI105
g3050
sI112
g3288
sI116
g3401
sI118
g3460
sI125
g3660
ssI198
(dp5353
I135
g3846
sI136
g3864
sI140
g3968
sI141
g4023
sI142
g4080
sI145
g4245
sI148
g4392
sI149
g4439
sI152
g4580
sI153
g4622
sI156
g4746
sI157
g4784
sI163
g4972
sI164
g4998
sI168
g5105
sI173
g5194
sI176
g5230
sI179
g5257
sI180
g5267
sI183
g5289
sI185
g5303
sI186
g5310
sI188
g5318
sI189
g5322
sI191
g5333
sI192
g5337
sI193
g5341
sI194
g5346
sI197
g5351
sI101
g2908
sI102
g2946
sI104
g3019
sI110
g3220
sI118
g3461
sI119
g3489
sI120
g3523
sI121
g3551
sI124
g3613
ssI199
(dp5354
I140
g3969
sI141
g4024
sI142
g4081
sI143
g4136
sI144
g4191
sI145
g4246
sI146
g4295
sI147
g4343
sI149
g4440
sI150
g4487
sI151
g4534
sI152
g4581
sI154
g4663
sI155
g4706
sI156
g4747
sI157
g4785
sI158
g4822
sI161
g4915
sI35
g1321
sI164
g4999
sI165
g5028
sI166
g5057
sI170
g5137
sI171
g5159
sI172
g5177
sI177
g5244
sI180
g5268
sI181
g5277
sI183
g5290
sI190
g5328
sI192
g5338
sI193
g5342
sI194
g5347
sI197
g5352
sI103
g2987
sI105
g3051
sI108
g3155
sI113
g3316
sI118
g3462
sI120
g3524
sI125
g3661
ssI200
(dp5355
I256
(dp5356
sI258
(dp5357
sI259
(dp5358
sI260
(dp5359
sI262
(dp5360
sI263
(dp5361
sI266
(dp5362
sI267
(dp5363
sI268
(dp5364
sI269
(dp5365
sI271
(dp5366
sI272
(dp5367
sI273
(dp5368
sI275
(dp5369
sI276
(dp5370
sI277
(dp5371
sI278
(dp5372
sI281
(dp5373
sI282
(dp5374
sI289
(dp5375
sI290
(dp5376
sI293
(dp5377
sI296
(dp5378
sI240
(dp5379
sI241
(dp5380
sI242
(dp5381
sI244
(dp5382
sI245
(dp5383
sI246
(dp5384
sI247
(dp5385
sI248
(dp5386
sI249
(dp5387
sI250
(dp5388
sI254
(dp5389
ssI201
(dp5390
I256
(dp5391
sI257
(dp5392
sI258
(dp5393
sI259
(dp5394
sI260
(dp5395
sI261
(dp5396
sI262
(dp5397
sI263
(dp5398
sI266
(dp5399
sI267
(dp5400
sI273
(dp5401
sI276
(dp5402
sI277
(dp5403
sI280
(dp5404
sI286
(dp5405
sI288
(dp5406
sI296
(dp5407
sI297
(dp5408
sI298
(dp5409
sI240
(dp5410
sI241
(dp5411
sI242
(dp5412
sI243
(dp5413
sI244
(dp5414
sI245
(dp5415
sI246
(dp5416
sI247
(dp5417
sI248
(dp5418
sI250
(dp5419
sI251
(dp5420
sI252
(dp5421
sI254
(dp5422
sI255
(dp5423
ssI202
(dp5424
I256
(dp5425
sI257
(dp5426
sI258
(dp5427
sI259
(dp5428
sI261
(dp5429
sI262
(dp5430
sI263
(dp5431
sI265
(dp5432
sI267
(dp5433
sI268
(dp5434
sI269
(dp5435
sI272
(dp5436
sI274
(dp5437
sI280
(dp5438
sI281
(dp5439
sI283
(dp5440
sI286
(dp5441
sI287
(dp5442
sI289
(dp5443
sI294
(dp5444
sI297
(dp5445
sI298
(dp5446
sI7
g587
sI240
(dp5447
sI241
(dp5448
sI242
(dp5449
sI243
(dp5450
sI244
(dp5451
sI245
(dp5452
sI246
(dp5453
sI247
(dp5454
sI248
(dp5455
sI249
(dp5456
sI250
(dp5457
sI251
(dp5458
sI252
(dp5459
sI253
(dp5460
sI254
(dp5461
ssI203
(dp5462
I257
(dp5463
sI258
(dp5464
sI259
(dp5465
sI260
(dp5466
sI262
(dp5467
sI263
(dp5468
sI264
(dp5469
sI265
(dp5470
sI266
(dp5471
sI267
(dp5472
sI268
(dp5473
sI269
(dp5474
sI270
(dp5475
sI272
(dp5476
sI275
(dp5477
sI276
(dp5478
sI279
(dp5479
sI280
(dp5480
sI281
(dp5481
sI283
(dp5482
sI285
(dp5483
sI289
(dp5484
sI290
(dp5485
sI293
(dp5486
sI297
(dp5487
sI299
(dp5488
sI240
(dp5489
sI241
(dp5490
sI242
(dp5491
sI243
(dp5492
sI244
(dp5493
sI245
(dp5494
sI246
(dp5495
sI249
(dp5496
sI250
(dp5497
sI251
(dp5498
sI252
(dp5499
sI253
(dp5500
sI255
(dp5501
ssI204
(dp5502
I260
(dp5503
sI263
(dp5504
sI264
(dp5505
sI265
(dp5506
sI266
(dp5507
sI271
(dp5508
sI274
(dp5509
sI275
(dp5510
sI278
(dp5511
sI279
(dp5512
sI280
(dp5513
sI281
(dp5514
sI285
(dp5515
sI287
(dp5516
sI290
(dp5517
sI291
(dp5518
sI292
(dp5519
sI298
(dp5520
sI240
(dp5521
sI241
(dp5522
sI242
(dp5523
sI243
(dp5524
sI244
(dp5525
sI245
(dp5526
sI246
(dp5527
sI248
(dp5528
sI250
(dp5529
sI251
(dp5530
sI252
(dp5531
sI253
(dp5532
sI254
(dp5533
ssI205
(dp5534
I256
(dp5535
sI257
(dp5536
sI258
(dp5537
sI264
(dp5538
sI265
(dp5539
sI267
(dp5540
sI270
(dp5541
sI271
(dp5542
sI272
(dp5543
sI274
(dp5544
sI279
(dp5545
sI281
(dp5546
sI283
(dp5547
sI286
(dp5548
sI287
(dp5549
sI291
(dp5550
sI293
(dp5551
sI294
(dp5552
sI295
(dp5553
sI297
(dp5554
sI299
(dp5555
sI240
(dp5556
sI241
(dp5557
sI242
(dp5558
sI243
(dp5559
sI244
(dp5560
sI246
(dp5561
sI247
(dp5562
sI249
(dp5563
sI250
(dp5564
sI252
(dp5565
ssI206
(dp5566
I256
(dp5567
sI257
(dp5568
sI258
(dp5569
sI261
(dp5570
sI262
(dp5571
sI263
(dp5572
sI264
(dp5573
sI265
(dp5574
sI272
(dp5575
sI275
(dp5576
sI276
(dp5577
sI278
(dp5578
sI279
(dp5579
sI281
(dp5580
sI282
(dp5581
sI283
(dp5582
sI284
(dp5583
sI285
(dp5584
sI286
(dp5585
sI240
(dp5586
sI241
(dp5587
sI242
(dp5588
sI243
(dp5589
sI244
(dp5590
sI245
(dp5591
sI246
(dp5592
sI247
(dp5593
sI248
(dp5594
sI250
(dp5595
sI251
(dp5596
sI252
(dp5597
sI253
(dp5598
sI254
(dp5599
sI255
(dp5600
ssI207
(dp5601
I256
(dp5602
sI257
(dp5603
sI258
(dp5604
sI261
(dp5605
sI262
(dp5606
sI263
(dp5607
sI264
(dp5608
sI265
(dp5609
sI266
(dp5610
sI273
(dp5611
sI278
(dp5612
sI281
(dp5613
sI282
(dp5614
sI284
(dp5615
sI285
(dp5616
sI290
(dp5617
sI291
(dp5618
sI294
(dp5619
sI295
(dp5620
sI296
(dp5621
sI121
g3552
sI240
(dp5622
sI241
(dp5623
sI242
(dp5624
sI243
(dp5625
sI244
(dp5626
sI245
(dp5627
sI246
(dp5628
sI247
(dp5629
sI248
(dp5630
sI249
(dp5631
sI250
(dp5632
sI251
(dp5633
sI253
(dp5634
sI254
(dp5635
sI255
(dp5636
ssI208
(dp5637
I257
(dp5638
sI260
(dp5639
sI261
(dp5640
sI262
(dp5641
sI263
(dp5642
sI265
(dp5643
sI266
(dp5644
sI267
(dp5645
sI268
(dp5646
sI272
(dp5647
sI276
(dp5648
sI280
(dp5649
sI281
(dp5650
sI284
(dp5651
sI285
(dp5652
sI286
(dp5653
sI287
(dp5654
sI299
(dp5655
sI240
(dp5656
sI241
(dp5657
sI242
(dp5658
sI243
(dp5659
sI244
(dp5660
sI245
(dp5661
sI246
(dp5662
sI247
(dp5663
sI248
(dp5664
sI250
(dp5665
sI251
(dp5666
sI253
(dp5667
sI254
(dp5668
sI255
(dp5669
ssI209
(dp5670
I256
(dp5671
sI258
(dp5672
sI260
(dp5673
sI262
(dp5674
sI267
(dp5675
sI272
(dp5676
sI273
(dp5677
sI274
(dp5678
sI276
(dp5679
sI286
(dp5680
sI288
(dp5681
sI291
(dp5682
sI292
(dp5683
sI293
(dp5684
sI295
(dp5685
sI296
(dp5686
sI240
(dp5687
sI242
(dp5688
sI243
(dp5689
sI245
(dp5690
sI246
(dp5691
sI247
(dp5692
sI248
(dp5693
sI249
(dp5694
sI250
(dp5695
sI251
(dp5696
sI252
(dp5697
sI253
(dp5698
sI255
(dp5699
ssI210
(dp5700
I256
(dp5701
sI257
(dp5702
sI258
(dp5703
sI259
(dp5704
sI263
(dp5705
sI264
(dp5706
sI266
(dp5707
sI267
(dp5708
sI268
(dp5709
sI269
(dp5710
sI270
(dp5711
sI271
(dp5712
sI275
(dp5713
sI278
(dp5714
sI284
(dp5715
sI285
(dp5716
sI289
(dp5717
sI298
(dp5718
sI240
(dp5719
sI241
(dp5720
sI242
(dp5721
sI243
(dp5722
sI244
(dp5723
sI245
(dp5724
sI246
(dp5725
sI247
(dp5726
sI248
(dp5727
sI249
(dp5728
sI250
(dp5729
sI251
(dp5730
sI252
(dp5731
sI253
(dp5732
sI254
(dp5733
sI255
(dp5734
ssI211
(dp5735
I256
(dp5736
sI257
(dp5737
sI258
(dp5738
sI259
(dp5739
sI260
(dp5740
sI261
(dp5741
sI262
(dp5742
sI263
(dp5743
sI265
(dp5744
sI266
(dp5745
sI267
(dp5746
sI268
(dp5747
sI270
(dp5748
sI271
(dp5749
sI273
(dp5750
sI274
(dp5751
sI275
(dp5752
sI276
(dp5753
sI281
(dp5754
sI284
(dp5755
sI285
(dp5756
sI288
(dp5757
sI289
(dp5758
sI291
(dp5759
sI295
(dp5760
sI240
(dp5761
sI241
(dp5762
sI242
(dp5763
sI243
(dp5764
sI244
(dp5765
sI245
(dp5766
sI246
(dp5767
sI247
(dp5768
sI248
(dp5769
sI249
(dp5770
sI250
(dp5771
sI251
(dp5772
sI252
(dp5773
sI253
(dp5774
sI254
(dp5775
ssI212
(dp5776
I256
(dp5777
sI257
(dp5778
sI259
(dp5779
sI261
(dp5780
sI262
(dp5781
sI264
(dp5782
sI271
(dp5783
sI272
(dp5784
sI273
(dp5785
sI277
(dp5786
sI280
(dp5787
sI284
(dp5788
sI285
(dp5789
sI288
(dp5790
sI290
(dp5791
sI291
(dp5792
sI294
(dp5793
sI297
(dp5794
sI240
(dp5795
sI241
(dp5796
sI243
(dp5797
sI244
(dp5798
sI247
(dp5799
sI249
(dp5800
sI251
(dp5801
sI252
(dp5802
ssI213
(dp5803
I259
(dp5804
sI261
(dp5805
sI263
(dp5806
sI265
(dp5807
sI269
(dp5808
sI270
(dp5809
sI272
(dp5810
sI274
(dp5811
sI276
(dp5812
sI288
(dp5813
sI293
(dp5814
sI299
(dp5815
sI240
(dp5816
sI241
(dp5817
sI242
(dp5818
sI243
(dp5819
sI244
(dp5820
sI245
(dp5821
sI246
(dp5822
sI248
(dp5823
sI249
(dp5824
sI250
(dp5825
sI251
(dp5826
sI252
(dp5827
sI253
(dp5828
sI255
(dp5829
ssI214
(dp5830
I257
(dp5831
sI258
(dp5832
sI261
(dp5833
sI263
(dp5834
sI264
(dp5835
sI265
(dp5836
sI266
(dp5837
sI268
(dp5838
sI269
(dp5839
sI270
(dp5840
sI272
(dp5841
sI277
(dp5842
sI278
(dp5843
sI279
(dp5844
sI282
(dp5845
sI285
(dp5846
sI287
(dp5847
sI289
(dp5848
sI295
(dp5849
sI87
g2796
sI240
(dp5850
sI241
(dp5851
sI242
(dp5852
sI243
(dp5853
sI244
(dp5854
sI245
(dp5855
sI246
(dp5856
sI247
(dp5857
sI248
(dp5858
sI249
(dp5859
sI250
(dp5860
sI251
(dp5861
sI253
(dp5862
sI254
(dp5863
sI255
(dp5864
ssI215
(dp5865
I256
(dp5866
sI257
(dp5867
sI259
(dp5868
sI260
(dp5869
sI261
(dp5870
sI264
(dp5871
sI269
(dp5872
sI271
(dp5873
sI240
(dp5874
sI241
(dp5875
sI242
(dp5876
sI243
(dp5877
sI244
(dp5878
sI245
(dp5879
sI246
(dp5880
sI247
(dp5881
sI248
(dp5882
sI249
(dp5883
sI251
(dp5884
sI252
(dp5885
ssI216
(dp5886
I256
(dp5887
sI258
(dp5888
sI259
(dp5889
sI260
(dp5890
sI265
(dp5891
sI267
(dp5892
sI268
(dp5893
sI149
g4441
sI282
(dp5894
sI285
(dp5895
sI290
(dp5896
sI291
(dp5897
sI292
(dp5898
sI294
(dp5899
sI297
(dp5900
sI240
(dp5901
sI241
(dp5902
sI242
(dp5903
sI243
(dp5904
sI244
(dp5905
sI245
(dp5906
sI246
(dp5907
sI248
(dp5908
sI249
(dp5909
sI250
(dp5910
sI252
(dp5911
sI253
(dp5912
sI255
(dp5913
ssI217
(dp5914
I256
(dp5915
sI258
(dp5916
sI259
(dp5917
sI260
(dp5918
sI263
(dp5919
sI264
(dp5920
sI265
(dp5921
sI269
(dp5922
sI273
(dp5923
sI274
(dp5924
sI277
(dp5925
sI286
(dp5926
sI289
(dp5927
sI292
(dp5928
sI294
(dp5929
sI46
g1774
sI240
(dp5930
sI241
(dp5931
sI242
(dp5932
sI243
(dp5933
sI244
(dp5934
sI245
(dp5935
sI246
(dp5936
sI248
(dp5937
sI249
(dp5938
sI250
(dp5939
sI251
(dp5940
sI252
(dp5941
sI254
(dp5942
sI255
(dp5943
ssI218
(dp5944
I260
(dp5945
sI262
(dp5946
sI264
(dp5947
sI265
(dp5948
sI266
(dp5949
sI271
(dp5950
sI273
(dp5951
sI277
(dp5952
sI279
(dp5953
sI282
(dp5954
sI284
(dp5955
sI292
(dp5956
sI293
(dp5957
sI294
(dp5958
sI297
(dp5959
sI298
(dp5960
sI299
(dp5961
sI190
g5329
sI240
(dp5962
sI241
(dp5963
sI242
(dp5964
sI243
(dp5965
sI244
(dp5966
sI245
(dp5967
sI246
(dp5968
sI247
(dp5969
sI248
(dp5970
sI251
(dp5971
sI254
(dp5972
sI255
(dp5973
ssI219
(dp5974
I257
(dp5975
sI259
(dp5976
sI265
(dp5977
sI267
(dp5978
sI268
(dp5979
sI270
(dp5980
sI277
(dp5981
sI280
(dp5982
sI281
(dp5983
sI293
(dp5984
sI298
(dp5985
sI174
g5209
sI240
(dp5986
sI241
(dp5987
sI242
(dp5988
sI243
(dp5989
sI244
(dp5990
sI245
(dp5991
sI246
(dp5992
sI247
(dp5993
sI248
(dp5994
sI249
(dp5995
sI250
(dp5996
sI251
(dp5997
sI252
(dp5998
sI254
(dp5999
sI255
(dp6000
ssI220
(dp6001
I257
(dp6002
sI259
(dp6003
sI262
(dp6004
sI266
(dp6005
sI267
(dp6006
sI269
(dp6007
sI270
(dp6008
sI274
(dp6009
sI277
(dp6010
sI279
(dp6011
sI281
(dp6012
sI285
(dp6013
sI288
(dp6014
sI290
(dp6015
sI291
(dp6016
sI294
(dp6017
sI298
(dp6018
sI299
(dp6019
sI240
(dp6020
sI241
(dp6021
sI242
(dp6022
sI243
(dp6023
sI244
(dp6024
sI245
(dp6025
sI246
(dp6026
sI247
(dp6027
sI248
(dp6028
sI249
(dp6029
sI250
(dp6030
sI251
(dp6031
sI252
(dp6032
sI253
(dp6033
sI254
(dp6034
sI255
(dp6035
ssI221
(dp6036
I257
(dp6037
sI260
(dp6038
sI266
(dp6039
sI270
(dp6040
sI271
(dp6041
sI279
(dp6042
sI285
(dp6043
sI286
(dp6044
sI294
(dp6045
sI298
(dp6046
sI240
(dp6047
sI241
(dp6048
sI242
(dp6049
sI243
(dp6050
sI244
(dp6051
sI245
(dp6052
sI246
(dp6053
sI247
(dp6054
sI248
(dp6055
sI249
(dp6056
sI251
(dp6057
sI252
(dp6058
sI253
(dp6059
sI254
(dp6060
sI255
(dp6061
ssI222
(dp6062
I256
(dp6063
sI257
(dp6064
sI258
(dp6065
sI259
(dp6066
sI261
(dp6067
sI262
(dp6068
sI263
(dp6069
sI264
(dp6070
sI265
(dp6071
sI269
(dp6072
sI274
(dp6073
sI282
(dp6074
sI240
(dp6075
sI241
(dp6076
sI242
(dp6077
sI243
(dp6078
sI244
(dp6079
sI245
(dp6080
sI246
(dp6081
sI247
(dp6082
sI248
(dp6083
sI249
(dp6084
sI250
(dp6085
sI251
(dp6086
sI252
(dp6087
sI253
(dp6088
sI255
(dp6089
ssI223
(dp6090
I256
(dp6091
sI257
(dp6092
sI259
(dp6093
sI261
(dp6094
sI262
(dp6095
sI263
(dp6096
sI266
(dp6097
sI267
(dp6098
sI269
(dp6099
sI271
(dp6100
sI274
(dp6101
sI287
(dp6102
sI290
(dp6103
sI293
(dp6104
sI294
(dp6105
sI116
g3402
sI240
(dp6106
sI241
(dp6107
sI242
(dp6108
sI243
(dp6109
sI244
(dp6110
sI245
(dp6111
sI246
(dp6112
sI247
(dp6113
sI248
(dp6114
sI249
(dp6115
sI250
(dp6116
sI253
(dp6117
sI254
(dp6118
sI255
(dp6119
ssI224
(dp6120
I290
(dp6121
sI259
(dp6122
sI261
(dp6123
sI249
(dp6124
sI248
(dp6125
sI298
(dp6126
sI240
(dp6127
sI241
(dp6128
sI242
(dp6129
sI243
(dp6130
sI244
(dp6131
sI247
(dp6132
sI280
(dp6133
sI281
(dp6134
sI251
(dp6135
sI253
(dp6136
sI254
(dp6137
ssI225
(dp6138
I256
(dp6139
sI257
(dp6140
sI258
(dp6141
sI259
(dp6142
sI260
(dp6143
sI261
(dp6144
sI262
(dp6145
sI263
(dp6146
sI264
(dp6147
sI266
(dp6148
sI271
(dp6149
sI280
(dp6150
sI287
(dp6151
sI289
(dp6152
sI290
(dp6153
sI293
(dp6154
sI297
(dp6155
sI299
(dp6156
sI240
(dp6157
sI241
(dp6158
sI242
(dp6159
sI243
(dp6160
sI244
(dp6161
sI245
(dp6162
sI246
(dp6163
sI247
(dp6164
sI248
(dp6165
sI249
(dp6166
sI250
(dp6167
sI252
(dp6168
sI254
(dp6169
sI255
(dp6170
ssI226
(dp6171
I256
(dp6172
sI260
(dp6173
sI261
(dp6174
sI262
(dp6175
sI263
(dp6176
sI264
(dp6177
sI274
(dp6178
sI277
(dp6179
sI153
g4623
sI287
(dp6180
sI35
g1328
sI240
(dp6181
sI241
(dp6182
sI242
(dp6183
sI243
(dp6184
sI244
(dp6185
sI245
(dp6186
sI246
(dp6187
sI247
(dp6188
sI248
(dp6189
sI249
(dp6190
sI250
(dp6191
sI251
(dp6192
sI252
(dp6193
sI253
(dp6194
sI255
(dp6195
ssI227
(dp6196
I258
(dp6197
sI259
(dp6198
sI261
(dp6199
sI262
(dp6200
sI9
g661
sI268
(dp6201
sI277
(dp6202
sI282
(dp6203
sI287
(dp6204
sI240
(dp6205
sI241
(dp6206
sI242
(dp6207
sI243
(dp6208
sI244
(dp6209
sI245
(dp6210
sI246
(dp6211
sI247
(dp6212
sI248
(dp6213
sI249
(dp6214
sI250
(dp6215
sI251
(dp6216
sI252
(dp6217
sI253
(dp6218
sI254
(dp6219
sI255
(dp6220
ssI228
(dp6221
I256
(dp6222
sI289
(dp6223
sI260
(dp6224
sI261
(dp6225
sI257
(dp6226
sI264
(dp6227
sI268
(dp6228
sI254
(dp6229
sI240
(dp6230
sI241
(dp6231
sI243
(dp6232
sI244
(dp6233
sI277
(dp6234
sI246
(dp6235
sI247
(dp6236
sI248
(dp6237
sI249
(dp6238
sI282
(dp6239
sI252
(dp6240
sI253
(dp6241
sI250
(dp6242
ssI229
(dp6243
I256
(dp6244
sI258
(dp6245
sI259
(dp6246
sI260
(dp6247
sI268
(dp6248
sI270
(dp6249
sI240
(dp6250
sI241
(dp6251
sI242
(dp6252
sI243
(dp6253
sI244
(dp6254
sI246
(dp6255
sI247
(dp6256
sI248
(dp6257
sI249
(dp6258
sI250
(dp6259
sI252
(dp6260
sI253
(dp6261
ssI230
(dp6262
I256
(dp6263
sI258
(dp6264
sI259
(dp6265
sI260
(dp6266
sI261
(dp6267
sI270
(dp6268
sI189
g5323
sI240
(dp6269
sI241
(dp6270
sI242
(dp6271
sI243
(dp6272
sI244
(dp6273
sI245
(dp6274
sI163
g4942
sI247
(dp6275
sI248
(dp6276
sI282
(dp6277
sI251
(dp6278
sI250
(dp6279
ssI231
(dp6280
I256
(dp6281
sI290
(dp6282
sI259
(dp6283
sI260
(dp6284
sI262
(dp6285
sI245
(dp6286
sI240
(dp6287
sI241
(dp6288
sI242
(dp6289
sI243
(dp6290
sI277
(dp6291
sI246
(dp6292
sI247
(dp6293
sI248
(dp6294
sI250
(dp6295
sI282
(dp6296
sI251
(dp6297
sI253
(dp6298
sI254
(dp6299
sI255
(dp6300
ssI232
(dp6301
I257
(dp6302
sI258
(dp6303
sI53
g2101
sI240
(dp6304
sI241
(dp6305
sI242
(dp6306
sI243
(dp6307
sI245
(dp6308
sI246
(dp6309
sI247
(dp6310
sI251
(dp6311
sI253
(dp6312
sI255
(dp6313
ssI233
(dp6314
I256
(dp6315
sI257
(dp6316
sI261
(dp6317
sI264
(dp6318
sI112
g3289
sI240
(dp6319
sI241
(dp6320
sI242
(dp6321
sI243
(dp6322
sI244
(dp6323
sI245
(dp6324
sI246
(dp6325
sI247
(dp6326
sI248
(dp6327
sI249
(dp6328
sI250
(dp6329
sI251
(dp6330
sI253
(dp6331
sI254
(dp6332
sI255
(dp6333
ssI234
(dp6334
I256
(dp6335
sI257
(dp6336
sI240
(dp6337
sI241
(dp6338
sI242
(dp6339
sI243
(dp6340
sI244
(dp6341
sI245
(dp6342
sI246
(dp6343
sI247
(dp6344
sI248
(dp6345
sI281
(dp6346
sI249
(dp6347
sI252
(dp6348
sI253
(dp6349
sI255
(dp6350
ssI235
(dp6351
I257
(dp6352
sI258
(dp6353
sI59
g2336
sI298
(dp6354
sI240
(dp6355
sI241
(dp6356
sI242
(dp6357
sI243
(dp6358
sI244
(dp6359
sI245
(dp6360
sI249
(dp6361
sI250
(dp6362
sI251
(dp6363
sI252
(dp6364
sI253
(dp6365
sI254
(dp6366
ssI236
(dp6367
I256
(dp6368
sI258
(dp6369
sI260
(dp6370
sI298
(dp6371
sI50
g1966
sI240
(dp6372
sI241
(dp6373
sI242
(dp6374
sI243
(dp6375
sI244
(dp6376
sI245
(dp6377
sI249
(dp6378
sI282
(dp6379
sI251
(dp6380
sI250
(dp6381
sI254
(dp6382
sI255
(dp6383
ssI237
(dp6384
I258
(dp6385
sI260
(dp6386
sI240
(dp6387
sI241
(dp6388
sI242
(dp6389
sI243
(dp6390
sI244
(dp6391
sI245
(dp6392
sI247
(dp6393
sI252
(dp6394
ssI238
(dp6395
I240
(dp6396
sI241
(dp6397
sI242
(dp6398
sI244
(dp6399
sI245
(dp6400
sI246
(dp6401
sI247
(dp6402
sI248
(dp6403
sI249
(dp6404
sI252
(dp6405
sI253
(dp6406
sI254
(dp6407
ssI239
(dp6408
I240
(dp6409
sI241
(dp6410
sI242
(dp6411
sI245
(dp6412
sI246
(dp6413
sI247
(dp6414
sI249
(dp6415
sI252
(dp6416
sI254
(dp6417
ssI240
(dp6418
I45
g1724
sI200
g5379
sI201
g5410
sI202
g5447
sI203
g5489
sI204
g5521
sI205
g5556
sI206
g5586
sI207
g5622
sI208
g5656
sI209
g5687
sI210
g5719
sI211
g5761
sI212
g5795
sI213
g5816
sI214
g5850
sI215
g5874
sI216
g5901
sI217
g5930
sI218
g5962
sI219
g5986
sI220
g6020
sI221
g6047
sI222
g6075
sI223
g6106
sI224
g6127
sI225
g6157
sI226
g6181
sI227
g6205
sI228
g6230
sI229
g6250
sI230
g6269
sI231
g6287
sI232
g6304
sI233
g6319
sI234
g6337
sI235
g6355
sI236
g6372
sI237
g6387
sI238
g6396
sI239
g6409
sI241
(dp6419
sI242
(dp6420
sI243
(dp6421
sI244
(dp6422
sI245
(dp6423
sI246
(dp6424
sI247
(dp6425
sI248
(dp6426
sI249
(dp6427
sI250
(dp6428
sI251
(dp6429
sI252
(dp6430
sI253
(dp6431
sI254
(dp6432
sI255
(dp6433
sI256
(dp6434
sI257
(dp6435
sI258
(dp6436
sI259
(dp6437
sI260
(dp6438
sI261
(dp6439
sI262
(dp6440
sI263
(dp6441
sI264
(dp6442
sI265
(dp6443
sI266
(dp6444
sI267
(dp6445
sI268
(dp6446
sI269
(dp6447
sI270
(dp6448
sI271
(dp6449
sI272
(dp6450
sI273
(dp6451
sI274
(dp6452
sI275
(dp6453
sI276
(dp6454
sI278
(dp6455
sI279
(dp6456
sI280
(dp6457
sI281
(dp6458
sI282
(dp6459
sI283
(dp6460
sI284
(dp6461
sI285
(dp6462
sI286
(dp6463
sI287
(dp6464
sI288
(dp6465
sI290
(dp6466
sI291
(dp6467
sI292
(dp6468
sI293
(dp6469
sI294
(dp6470
sI295
(dp6471
sI296
(dp6472
sI297
(dp6473
sI298
(dp6474
sI299
(dp6475
ssI241
(dp6476
I200
g5380
sI201
g5411
sI202
g5448
sI203
g5490
sI204
g5522
sI205
g5557
sI206
g5587
sI207
g5623
sI208
g5657
sI210
g5720
sI211
g5762
sI212
g5796
sI213
g5817
sI214
g5851
sI215
g5875
sI216
g5902
sI217
g5931
sI218
g5963
sI219
g5987
sI220
g6021
sI221
g6048
sI222
g6076
sI223
g6107
sI224
g6128
sI225
g6158
sI226
g6182
sI227
g6206
sI228
g6231
sI229
g6251
sI230
g6270
sI231
g6288
sI232
g6305
sI233
g6320
sI234
g6338
sI235
g6356
sI236
g6373
sI237
g6388
sI238
g6397
sI239
g6410
sI240
g6419
sI242
(dp6477
sI243
(dp6478
sI244
(dp6479
sI245
(dp6480
sI246
(dp6481
sI247
(dp6482
sI248
(dp6483
sI249
(dp6484
sI250
(dp6485
sI251
(dp6486
sI252
(dp6487
sI253
(dp6488
sI254
(dp6489
sI255
(dp6490
sI256
(dp6491
sI257
(dp6492
sI258
(dp6493
sI259
(dp6494
sI260
(dp6495
sI261
(dp6496
sI262
(dp6497
sI263
(dp6498
sI264
(dp6499
sI265
(dp6500
sI266
(dp6501
sI267
(dp6502
sI268
(dp6503
sI269
(dp6504
sI270
(dp6505
sI271
(dp6506
sI272
(dp6507
sI273
(dp6508
sI274
(dp6509
sI275
(dp6510
sI276
(dp6511
sI278
(dp6512
sI279
(dp6513
sI280
(dp6514
sI282
(dp6515
sI283
(dp6516
sI284
(dp6517
sI285
(dp6518
sI286
(dp6519
sI287
(dp6520
sI289
(dp6521
sI290
(dp6522
sI291
(dp6523
sI292
(dp6524
sI293
(dp6525
sI294
(dp6526
sI296
(dp6527
sI297
(dp6528
sI298
(dp6529
sI299
(dp6530
ssI242
(dp6531
I200
g5381
sI201
g5412
sI202
g5449
sI203
g5491
sI204
g5523
sI205
g5558
sI206
g5588
sI207
g5624
sI208
g5658
sI209
g5688
sI210
g5721
sI211
g5763
sI213
g5818
sI214
g5852
sI215
g5876
sI216
g5903
sI217
g5932
sI218
g5964
sI219
g5988
sI220
g6022
sI221
g6049
sI222
g6077
sI223
g6108
sI224
g6129
sI225
g6159
sI226
g6183
sI227
g6207
sI229
g6252
sI230
g6271
sI231
g6289
sI232
g6306
sI233
g6321
sI234
g6339
sI235
g6357
sI236
g6374
sI237
g6389
sI238
g6398
sI239
g6411
sI240
g6420
sI241
g6477
sI243
(dp6532
sI244
(dp6533
sI245
(dp6534
sI246
(dp6535
sI247
(dp6536
sI248
(dp6537
sI249
(dp6538
sI250
(dp6539
sI251
(dp6540
sI252
(dp6541
sI253
(dp6542
sI254
(dp6543
sI255
(dp6544
sI256
(dp6545
sI257
(dp6546
sI258
(dp6547
sI259
(dp6548
sI260
(dp6549
sI261
(dp6550
sI262
(dp6551
sI263
(dp6552
sI264
(dp6553
sI265
(dp6554
sI266
(dp6555
sI267
(dp6556
sI268
(dp6557
sI269
(dp6558
sI270
(dp6559
sI271
(dp6560
sI272
(dp6561
sI273
(dp6562
sI274
(dp6563
sI275
(dp6564
sI276
(dp6565
sI277
(dp6566
sI278
(dp6567
sI279
(dp6568
sI280
(dp6569
sI281
(dp6570
sI282
(dp6571
sI283
(dp6572
sI284
(dp6573
sI285
(dp6574
sI286
(dp6575
sI287
(dp6576
sI288
(dp6577
sI289
(dp6578
sI290
(dp6579
sI291
(dp6580
sI292
(dp6581
sI294
(dp6582
sI295
(dp6583
sI296
(dp6584
sI297
(dp6585
sI298
(dp6586
sI299
(dp6587
ssI243
(dp6588
I128
g3735
sI201
g5413
sI202
g5450
sI203
g5492
sI204
g5524
sI205
g5559
sI206
g5589
sI207
g5625
sI208
g5659
sI209
g5689
sI210
g5722
sI211
g5764
sI212
g5797
sI213
g5819
sI214
g5853
sI215
g5877
sI216
g5904
sI217
g5933
sI218
g5965
sI219
g5989
sI220
g6023
sI221
g6050
sI222
g6078
sI223
g6109
sI224
g6130
sI225
g6160
sI226
g6184
sI227
g6208
sI228
g6232
sI229
g6253
sI230
g6272
sI231
g6290
sI232
g6307
sI233
g6322
sI234
g6340
sI235
g6358
sI236
g6375
sI237
g6390
sI240
g6421
sI241
g6478
sI242
g6532
sI244
(dp6589
sI245
(dp6590
sI246
(dp6591
sI247
(dp6592
sI248
(dp6593
sI249
(dp6594
sI250
(dp6595
sI251
(dp6596
sI252
(dp6597
sI253
(dp6598
sI254
(dp6599
sI255
(dp6600
sI256
(dp6601
sI257
(dp6602
sI258
(dp6603
sI259
(dp6604
sI260
(dp6605
sI261
(dp6606
sI262
(dp6607
sI263
(dp6608
sI264
(dp6609
sI265
(dp6610
sI266
(dp6611
sI267
(dp6612
sI268
(dp6613
sI269
(dp6614
sI270
(dp6615
sI271
(dp6616
sI272
(dp6617
sI273
(dp6618
sI274
(dp6619
sI275
(dp6620
sI276
(dp6621
sI278
(dp6622
sI279
(dp6623
sI280
(dp6624
sI281
(dp6625
sI282
(dp6626
sI283
(dp6627
sI284
(dp6628
sI285
(dp6629
sI286
(dp6630
sI287
(dp6631
sI288
(dp6632
sI289
(dp6633
sI290
(dp6634
sI291
(dp6635
sI292
(dp6636
sI293
(dp6637
sI294
(dp6638
sI295
(dp6639
sI296
(dp6640
sI299
(dp6641
ssI244
(dp6642
I97
g2837
sI200
g5382
sI201
g5414
sI202
g5451
sI203
g5493
sI204
g5525
sI205
g5560
sI206
g5590
sI207
g5626
sI208
g5660
sI210
g5723
sI211
g5765
sI212
g5798
sI213
g5820
sI214
g5854
sI215
g5878
sI216
g5905
sI217
g5934
sI218
g5966
sI219
g5990
sI220
g6024
sI221
g6051
sI222
g6079
sI223
g6110
sI224
g6131
sI225
g6161
sI226
g6185
sI227
g6209
sI228
g6233
sI229
g6254
sI230
g6273
sI233
g6323
sI234
g6341
sI235
g6359
sI236
g6376
sI237
g6391
sI238
g6399
sI240
g6422
sI241
g6479
sI242
g6533
sI243
g6589
sI245
(dp6643
sI246
(dp6644
sI247
(dp6645
sI248
(dp6646
sI249
(dp6647
sI250
(dp6648
sI251
(dp6649
sI252
(dp6650
sI253
(dp6651
sI254
(dp6652
sI255
(dp6653
sI256
(dp6654
sI257
(dp6655
sI258
(dp6656
sI259
(dp6657
sI260
(dp6658
sI261
(dp6659
sI262
(dp6660
sI263
(dp6661
sI264
(dp6662
sI265
(dp6663
sI266
(dp6664
sI267
(dp6665
sI268
(dp6666
sI269
(dp6667
sI270
(dp6668
sI271
(dp6669
sI272
(dp6670
sI273
(dp6671
sI274
(dp6672
sI275
(dp6673
sI276
(dp6674
sI277
(dp6675
sI278
(dp6676
sI279
(dp6677
sI280
(dp6678
sI281
(dp6679
sI282
(dp6680
sI283
(dp6681
sI284
(dp6682
sI285
(dp6683
sI286
(dp6684
sI287
(dp6685
sI288
(dp6686
sI289
(dp6687
sI290
(dp6688
sI291
(dp6689
sI292
(dp6690
sI293
(dp6691
sI294
(dp6692
sI295
(dp6693
sI296
(dp6694
sI297
(dp6695
sI299
(dp6696
ssI245
(dp6697
I200
g5383
sI201
g5415
sI202
g5452
sI203
g5494
sI204
g5526
sI206
g5591
sI207
g5627
sI208
g5661
sI209
g5690
sI210
g5724
sI211
g5766
sI213
g5821
sI214
g5855
sI215
g5879
sI216
g5906
sI217
g5935
sI218
g5967
sI219
g5991
sI220
g6025
sI221
g6052
sI222
g6080
sI223
g6111
sI225
g6162
sI226
g6186
sI227
g6210
sI230
g6274
sI231
g6286
sI232
g6308
sI233
g6324
sI234
g6342
sI235
g6360
sI236
g6377
sI237
g6392
sI238
g6400
sI239
g6412
sI240
g6423
sI241
g6480
sI242
g6534
sI243
g6590
sI244
g6643
sI246
(dp6698
sI247
(dp6699
sI248
(dp6700
sI249
(dp6701
sI250
(dp6702
sI251
(dp6703
sI252
(dp6704
sI253
(dp6705
sI254
(dp6706
sI255
(dp6707
sI256
(dp6708
sI257
(dp6709
sI258
(dp6710
sI259
(dp6711
sI260
(dp6712
sI261
(dp6713
sI262
(dp6714
sI263
(dp6715
sI264
(dp6716
sI265
(dp6717
sI266
(dp6718
sI267
(dp6719
sI268
(dp6720
sI269
(dp6721
sI270
(dp6722
sI271
(dp6723
sI272
(dp6724
sI273
(dp6725
sI274
(dp6726
sI275
(dp6727
sI276
(dp6728
sI277
(dp6729
sI278
(dp6730
sI279
(dp6731
sI280
(dp6732
sI281
(dp6733
sI282
(dp6734
sI283
(dp6735
sI284
(dp6736
sI285
(dp6737
sI286
(dp6738
sI287
(dp6739
sI288
(dp6740
sI289
(dp6741
sI290
(dp6742
sI291
(dp6743
sI292
(dp6744
sI293
(dp6745
sI294
(dp6746
sI295
(dp6747
sI296
(dp6748
sI297
(dp6749
sI298
(dp6750
sI299
(dp6751
ssI246
(dp6752
I115
g3373
sI200
g5384
sI201
g5416
sI202
g5453
sI203
g5495
sI204
g5527
sI205
g5561
sI206
g5592
sI207
g5628
sI208
g5662
sI209
g5691
sI210
g5725
sI211
g5767
sI213
g5822
sI214
g5856
sI215
g5880
sI216
g5907
sI217
g5936
sI218
g5968
sI219
g5992
sI220
g6026
sI221
g6053
sI222
g6081
sI223
g6112
sI225
g6163
sI226
g6187
sI227
g6211
sI228
g6235
sI229
g6255
sI231
g6292
sI232
g6309
sI233
g6325
sI234
g6343
sI238
g6401
sI239
g6413
sI240
g6424
sI241
g6481
sI242
g6535
sI243
g6591
sI244
g6644
sI245
g6698
sI247
(dp6753
sI248
(dp6754
sI249
(dp6755
sI250
(dp6756
sI251
(dp6757
sI252
(dp6758
sI253
(dp6759
sI254
(dp6760
sI255
(dp6761
sI256
(dp6762
sI257
(dp6763
sI258
(dp6764
sI259
(dp6765
sI260
(dp6766
sI261
(dp6767
sI262
(dp6768
sI263
(dp6769
sI264
(dp6770
sI265
(dp6771
sI266
(dp6772
sI267
(dp6773
sI268
(dp6774
sI269
(dp6775
sI270
(dp6776
sI271
(dp6777
sI272
(dp6778
sI273
(dp6779
sI274
(dp6780
sI275
(dp6781
sI276
(dp6782
sI277
(dp6783
sI278
(dp6784
sI279
(dp6785
sI280
(dp6786
sI282
(dp6787
sI283
(dp6788
sI284
(dp6789
sI285
(dp6790
sI286
(dp6791
sI287
(dp6792
sI288
(dp6793
sI289
(dp6794
sI291
(dp6795
sI292
(dp6796
sI293
(dp6797
sI295
(dp6798
sI297
(dp6799
sI299
(dp6800
ssI247
(dp6801
I200
g5385
sI201
g5417
sI202
g5454
sI205
g5562
sI206
g5593
sI207
g5629
sI208
g5663
sI209
g5692
sI210
g5726
sI211
g5768
sI212
g5799
sI214
g5857
sI215
g5881
sI218
g5969
sI219
g5993
sI220
g6027
sI221
g6054
sI222
g6082
sI223
g6113
sI224
g6132
sI225
g6164
sI226
g6188
sI227
g6212
sI228
g6236
sI229
g6256
sI230
g6275
sI231
g6293
sI232
g6310
sI233
g6326
sI234
g6344
sI237
g6393
sI238
g6402
sI239
g6414
sI240
g6425
sI241
g6482
sI242
g6536
sI243
g6592
sI244
g6645
sI245
g6699
sI246
g6753
sI248
(dp6802
sI249
(dp6803
sI250
(dp6804
sI251
(dp6805
sI252
(dp6806
sI253
(dp6807
sI254
(dp6808
sI255
(dp6809
sI256
(dp6810
sI257
(dp6811
sI258
(dp6812
sI259
(dp6813
sI260
(dp6814
sI261
(dp6815
sI262
(dp6816
sI263
(dp6817
sI264
(dp6818
sI265
(dp6819
sI266
(dp6820
sI267
(dp6821
sI268
(dp6822
sI269
(dp6823
sI270
(dp6824
sI271
(dp6825
sI272
(dp6826
sI273
(dp6827
sI274
(dp6828
sI275
(dp6829
sI276
(dp6830
sI277
(dp6831
sI278
(dp6832
sI279
(dp6833
sI280
(dp6834
sI281
(dp6835
sI283
(dp6836
sI284
(dp6837
sI286
(dp6838
sI287
(dp6839
sI288
(dp6840
sI289
(dp6841
sI290
(dp6842
sI291
(dp6843
sI293
(dp6844
sI295
(dp6845
sI296
(dp6846
sI297
(dp6847
sI299
(dp6848
ssI248
(dp6849
I158
g4823
sI200
g5386
sI201
g5418
sI202
g5455
sI204
g5528
sI206
g5594
sI207
g5630
sI208
g5664
sI209
g5693
sI210
g5727
sI211
g5769
sI213
g5823
sI214
g5858
sI215
g5882
sI216
g5908
sI217
g5937
sI218
g5970
sI219
g5994
sI220
g6028
sI221
g6055
sI222
g6083
sI223
g6114
sI224
g6125
sI225
g6165
sI226
g6189
sI227
g6213
sI228
g6237
sI229
g6257
sI230
g6276
sI231
g6294
sI233
g6327
sI234
g6345
sI238
g6403
sI240
g6426
sI241
g6483
sI242
g6537
sI243
g6593
sI244
g6646
sI245
g6700
sI246
g6754
sI247
g6802
sI249
(dp6850
sI250
(dp6851
sI251
(dp6852
sI252
(dp6853
sI253
(dp6854
sI254
(dp6855
sI255
(dp6856
sI256
(dp6857
sI257
(dp6858
sI258
(dp6859
sI259
(dp6860
sI260
(dp6861
sI261
(dp6862
sI262
(dp6863
sI263
(dp6864
sI264
(dp6865
sI265
(dp6866
sI266
(dp6867
sI267
(dp6868
sI268
(dp6869
sI269
(dp6870
sI270
(dp6871
sI271
(dp6872
sI272
(dp6873
sI273
(dp6874
sI274
(dp6875
sI275
(dp6876
sI276
(dp6877
sI277
(dp6878
sI278
(dp6879
sI279
(dp6880
sI280
(dp6881
sI281
(dp6882
sI282
(dp6883
sI283
(dp6884
sI284
(dp6885
sI285
(dp6886
sI286
(dp6887
sI287
(dp6888
sI288
(dp6889
sI290
(dp6890
sI291
(dp6891
sI292
(dp6892
sI293
(dp6893
sI294
(dp6894
sI295
(dp6895
sI296
(dp6896
sI298
(dp6897
ssI249
(dp6898
I200
g5387
sI202
g5456
sI203
g5496
sI205
g5563
sI207
g5631
sI209
g5694
sI210
g5728
sI211
g5770
sI212
g5800
sI213
g5824
sI214
g5859
sI215
g5883
sI216
g5909
sI217
g5938
sI219
g5995
sI220
g6029
sI221
g6056
sI222
g6084
sI223
g6115
sI224
g6124
sI225
g6166
sI226
g6190
sI227
g6214
sI228
g6238
sI229
g6258
sI233
g6328
sI234
g6347
sI235
g6361
sI236
g6378
sI238
g6404
sI239
g6415
sI240
g6427
sI241
g6484
sI242
g6538
sI243
g6594
sI244
g6647
sI245
g6701
sI246
g6755
sI247
g6803
sI248
g6850
sI250
(dp6899
sI251
(dp6900
sI252
(dp6901
sI253
(dp6902
sI254
(dp6903
sI255
(dp6904
sI256
(dp6905
sI257
(dp6906
sI258
(dp6907
sI259
(dp6908
sI260
(dp6909
sI261
(dp6910
sI262
(dp6911
sI263
(dp6912
sI264
(dp6913
sI265
(dp6914
sI266
(dp6915
sI267
(dp6916
sI268
(dp6917
sI269
(dp6918
sI270
(dp6919
sI271
(dp6920
sI272
(dp6921
sI273
(dp6922
sI274
(dp6923
sI275
(dp6924
sI276
(dp6925
sI277
(dp6926
sI278
(dp6927
sI279
(dp6928
sI280
(dp6929
sI281
(dp6930
sI282
(dp6931
sI284
(dp6932
sI285
(dp6933
sI286
(dp6934
sI287
(dp6935
sI288
(dp6936
sI289
(dp6937
sI291
(dp6938
sI292
(dp6939
sI293
(dp6940
sI295
(dp6941
sI296
(dp6942
sI297
(dp6943
sI298
(dp6944
sI299
(dp6945
ssI250
(dp6946
I256
(dp6947
sI257
(dp6948
sI258
(dp6949
sI259
(dp6950
sI260
(dp6951
sI261
(dp6952
sI262
(dp6953
sI263
(dp6954
sI264
(dp6955
sI265
(dp6956
sI266
(dp6957
sI267
(dp6958
sI268
(dp6959
sI269
(dp6960
sI270
(dp6961
sI271
(dp6962
sI272
(dp6963
sI273
(dp6964
sI275
(dp6965
sI276
(dp6966
sI277
(dp6967
sI278
(dp6968
sI279
(dp6969
sI280
(dp6970
sI282
(dp6971
sI283
(dp6972
sI285
(dp6973
sI286
(dp6974
sI287
(dp6975
sI288
(dp6976
sI289
(dp6977
sI290
(dp6978
sI291
(dp6979
sI292
(dp6980
sI293
(dp6981
sI294
(dp6982
sI295
(dp6983
sI296
(dp6984
sI297
(dp6985
sI299
(dp6986
sI200
g5388
sI201
g5419
sI202
g5457
sI203
g5497
sI204
g5529
sI205
g5564
sI206
g5595
sI207
g5632
sI208
g5665
sI209
g5695
sI210
g5729
sI211
g5771
sI213
g5825
sI214
g5860
sI216
g5910
sI217
g5939
sI219
g5996
sI220
g6030
sI222
g6085
sI223
g6116
sI225
g6167
sI226
g6191
sI227
g6215
sI228
g6242
sI229
g6259
sI230
g6279
sI231
g6295
sI233
g6329
sI235
g6362
sI236
g6381
sI240
g6428
sI241
g6485
sI242
g6539
sI243
g6595
sI244
g6648
sI245
g6702
sI246
g6756
sI247
g6804
sI248
g6851
sI249
g6899
sI251
(dp6987
sI252
(dp6988
sI253
(dp6989
sI254
(dp6990
sI255
(dp6991
ssI251
(dp6992
I256
(dp6993
sI257
(dp6994
sI258
(dp6995
sI259
(dp6996
sI260
(dp6997
sI261
(dp6998
sI262
(dp6999
sI263
(dp7000
sI264
(dp7001
sI265
(dp7002
sI266
(dp7003
sI267
(dp7004
sI268
(dp7005
sI269
(dp7006
sI270
(dp7007
sI271
(dp7008
sI272
(dp7009
sI273
(dp7010
sI274
(dp7011
sI275
(dp7012
sI276
(dp7013
sI277
(dp7014
sI278
(dp7015
sI279
(dp7016
sI281
(dp7017
sI282
(dp7018
sI283
(dp7019
sI284
(dp7020
sI286
(dp7021
sI287
(dp7022
sI288
(dp7023
sI289
(dp7024
sI290
(dp7025
sI291
(dp7026
sI292
(dp7027
sI293
(dp7028
sI294
(dp7029
sI295
(dp7030
sI296
(dp7031
sI297
(dp7032
sI299
(dp7033
sI201
g5420
sI202
g5458
sI203
g5498
sI204
g5530
sI206
g5596
sI207
g5633
sI208
g5666
sI209
g5696
sI210
g5730
sI211
g5772
sI212
g5801
sI213
g5826
sI214
g5861
sI215
g5884
sI217
g5940
sI218
g5971
sI219
g5997
sI220
g6031
sI221
g6057
sI222
g6086
sI224
g6135
sI226
g6192
sI227
g6216
sI230
g6278
sI231
g6297
sI232
g6311
sI233
g6330
sI235
g6363
sI236
g6380
sI240
g6429
sI241
g6486
sI242
g6540
sI243
g6596
sI244
g6649
sI245
g6703
sI246
g6757
sI247
g6805
sI248
g6852
sI249
g6900
sI250
g6987
sI252
(dp7034
sI253
(dp7035
sI254
(dp7036
sI255
(dp7037
ssI252
(dp7038
I84
g2776
sI201
g5421
sI202
g5459
sI203
g5499
sI204
g5531
sI205
g5565
sI206
g5597
sI209
g5697
sI210
g5731
sI211
g5773
sI212
g5802
sI213
g5827
sI215
g5885
sI216
g5911
sI217
g5941
sI219
g5998
sI220
g6032
sI221
g6058
sI222
g6087
sI225
g6168
sI226
g6193
sI227
g6217
sI228
g6240
sI229
g6260
sI234
g6348
sI235
g6364
sI237
g6394
sI238
g6405
sI239
g6416
sI240
g6430
sI241
g6487
sI242
g6541
sI243
g6597
sI244
g6650
sI245
g6704
sI246
g6758
sI247
g6806
sI248
g6853
sI249
g6901
sI250
g6988
sI251
g7034
sI253
(dp7039
sI254
(dp7040
sI255
(dp7041
sI256
(dp7042
sI257
(dp7043
sI258
(dp7044
sI259
(dp7045
sI260
(dp7046
sI261
(dp7047
sI262
(dp7048
sI263
(dp7049
sI264
(dp7050
sI265
(dp7051
sI266
(dp7052
sI267
(dp7053
sI268
(dp7054
sI269
(dp7055
sI270
(dp7056
sI271
(dp7057
sI272
(dp7058
sI273
(dp7059
sI274
(dp7060
sI275
(dp7061
sI276
(dp7062
sI277
(dp7063
sI278
(dp7064
sI279
(dp7065
sI280
(dp7066
sI281
(dp7067
sI282
(dp7068
sI283
(dp7069
sI284
(dp7070
sI285
(dp7071
sI286
(dp7072
sI287
(dp7073
sI288
(dp7074
sI289
(dp7075
sI290
(dp7076
sI291
(dp7077
sI292
(dp7078
sI294
(dp7079
sI295
(dp7080
sI296
(dp7081
sI297
(dp7082
sI298
(dp7083
sI299
(dp7084
ssI253
(dp7085
I256
(dp7086
sI257
(dp7087
sI258
(dp7088
sI259
(dp7089
sI260
(dp7090
sI261
(dp7091
sI262
(dp7092
sI263
(dp7093
sI264
(dp7094
sI265
(dp7095
sI266
(dp7096
sI267
(dp7097
sI268
(dp7098
sI269
(dp7099
sI270
(dp7100
sI272
(dp7101
sI273
(dp7102
sI274
(dp7103
sI275
(dp7104
sI276
(dp7105
sI278
(dp7106
sI279
(dp7107
sI280
(dp7108
sI281
(dp7109
sI282
(dp7110
sI283
(dp7111
sI284
(dp7112
sI285
(dp7113
sI287
(dp7114
sI288
(dp7115
sI289
(dp7116
sI290
(dp7117
sI291
(dp7118
sI292
(dp7119
sI295
(dp7120
sI296
(dp7121
sI297
(dp7122
sI298
(dp7123
sI202
g5460
sI203
g5500
sI204
g5532
sI206
g5598
sI207
g5634
sI208
g5667
sI209
g5698
sI210
g5732
sI211
g5774
sI213
g5828
sI214
g5862
sI216
g5912
sI220
g6033
sI221
g6059
sI222
g6088
sI223
g6117
sI224
g6136
sI226
g6194
sI227
g6218
sI228
g6241
sI229
g6261
sI231
g6298
sI232
g6312
sI233
g6331
sI234
g6349
sI235
g6365
sI238
g6406
sI240
g6431
sI241
g6488
sI242
g6542
sI243
g6598
sI244
g6651
sI245
g6705
sI246
g6759
sI247
g6807
sI248
g6854
sI249
g6902
sI250
g6989
sI251
g7035
sI252
g7039
sI254
(dp7124
sI255
(dp7125
ssI254
(dp7126
I256
(dp7127
sI257
(dp7128
sI258
(dp7129
sI259
(dp7130
sI260
(dp7131
sI261
(dp7132
sI262
(dp7133
sI263
(dp7134
sI264
(dp7135
sI265
(dp7136
sI266
(dp7137
sI267
(dp7138
sI268
(dp7139
sI269
(dp7140
sI270
(dp7141
sI271
(dp7142
sI273
(dp7143
sI274
(dp7144
sI275
(dp7145
sI276
(dp7146
sI277
(dp7147
sI278
(dp7148
sI279
(dp7149
sI280
(dp7150
sI281
(dp7151
sI282
(dp7152
sI283
(dp7153
sI284
(dp7154
sI286
(dp7155
sI287
(dp7156
sI289
(dp7157
sI290
(dp7158
sI292
(dp7159
sI293
(dp7160
sI294
(dp7161
sI296
(dp7162
sI297
(dp7163
sI299
(dp7164
sI200
g5389
sI201
g5422
sI202
g5461
sI204
g5533
sI206
g5599
sI207
g5635
sI208
g5668
sI210
g5733
sI211
g5775
sI214
g5863
sI217
g5942
sI218
g5972
sI219
g5999
sI220
g6034
sI221
g6060
sI223
g6118
sI224
g6137
sI225
g6169
sI227
g6219
sI228
g6229
sI231
g6299
sI233
g6332
sI235
g6366
sI236
g6382
sI238
g6407
sI239
g6417
sI240
g6432
sI241
g6489
sI242
g6543
sI243
g6599
sI244
g6652
sI245
g6706
sI246
g6760
sI247
g6808
sI248
g6855
sI249
g6903
sI250
g6990
sI251
g7036
sI252
g7040
sI253
g7124
sI255
(dp7165
ssI255
(dp7166
I256
(dp7167
sI257
(dp7168
sI258
(dp7169
sI259
(dp7170
sI260
(dp7171
sI261
(dp7172
sI262
(dp7173
sI263
(dp7174
sI264
(dp7175
sI265
(dp7176
sI266
(dp7177
sI267
(dp7178
sI268
(dp7179
sI269
(dp7180
sI270
(dp7181
sI271
(dp7182
sI272
(dp7183
sI273
(dp7184
sI274
(dp7185
sI275
(dp7186
sI276
(dp7187
sI277
(dp7188
sI278
(dp7189
sI279
(dp7190
sI280
(dp7191
sI282
(dp7192
sI283
(dp7193
sI284
(dp7194
sI285
(dp7195
sI286
(dp7196
sI287
(dp7197
sI288
(dp7198
sI289
(dp7199
sI290
(dp7200
sI291
(dp7201
sI292
(dp7202
sI293
(dp7203
sI294
(dp7204
sI295
(dp7205
sI296
(dp7206
sI297
(dp7207
sI299
(dp7208
sI201
g5423
sI203
g5501
sI206
g5600
sI207
g5636
sI208
g5669
sI209
g5699
sI210
g5734
sI213
g5829
sI214
g5864
sI216
g5913
sI217
g5943
sI218
g5973
sI219
g6000
sI220
g6035
sI221
g6061
sI222
g6089
sI223
g6119
sI225
g6170
sI226
g6195
sI227
g6220
sI231
g6300
sI232
g6313
sI233
g6333
sI234
g6350
sI167
g5081
sI236
g6383
sI240
g6433
sI241
g6490
sI242
g6544
sI243
g6600
sI244
g6653
sI245
g6707
sI246
g6761
sI247
g6809
sI248
g6856
sI249
g6904
sI250
g6991
sI251
g7037
sI252
g7041
sI253
g7125
sI254
g7165
ssI256
(dp7209
I257
(dp7210
sI258
(dp7211
sI259
(dp7212
sI260
(dp7213
sI261
(dp7214
sI262
(dp7215
sI263
(dp7216
sI264
(dp7217
sI265
(dp7218
sI266
(dp7219
sI267
(dp7220
sI268
(dp7221
sI269
(dp7222
sI270
(dp7223
sI271
(dp7224
sI272
(dp7225
sI273
(dp7226
sI274
(dp7227
sI275
(dp7228
sI276
(dp7229
sI277
(dp7230
sI278
(dp7231
sI280
(dp7232
sI282
(dp7233
sI283
(dp7234
sI284
(dp7235
sI285
(dp7236
sI286
(dp7237
sI287
(dp7238
sI288
(dp7239
sI289
(dp7240
sI290
(dp7241
sI292
(dp7242
sI293
(dp7243
sI294
(dp7244
sI295
(dp7245
sI296
(dp7246
sI297
(dp7247
sI298
(dp7248
sI299
(dp7249
sI200
g5356
sI201
g5391
sI202
g5425
sI205
g5535
sI206
g5567
sI207
g5602
sI209
g5671
sI210
g5701
sI211
g5736
sI212
g5777
sI215
g5866
sI216
g5887
sI217
g5915
sI222
g6063
sI223
g6091
sI225
g6139
sI226
g6172
sI228
g6222
sI229
g6244
sI230
g6263
sI231
g6281
sI233
g6315
sI234
g6335
sI236
g6368
sI240
g6434
sI241
g6491
sI242
g6545
sI243
g6601
sI244
g6654
sI245
g6708
sI246
g6762
sI247
g6810
sI248
g6857
sI249
g6905
sI250
g6947
sI251
g6993
sI252
g7042
sI253
g7086
sI254
g7127
sI255
g7167
ssI257
(dp7250
I256
g7210
sI258
(dp7251
sI259
(dp7252
sI260
(dp7253
sI261
(dp7254
sI262
(dp7255
sI263
(dp7256
sI264
(dp7257
sI265
(dp7258
sI266
(dp7259
sI267
(dp7260
sI268
(dp7261
sI269
(dp7262
sI270
(dp7263
sI271
(dp7264
sI272
(dp7265
sI273
(dp7266
sI274
(dp7267
sI275
(dp7268
sI276
(dp7269
sI277
(dp7270
sI278
(dp7271
sI279
(dp7272
sI281
(dp7273
sI283
(dp7274
sI284
(dp7275
sI285
(dp7276
sI286
(dp7277
sI287
(dp7278
sI289
(dp7279
sI290
(dp7280
sI291
(dp7281
sI293
(dp7282
sI295
(dp7283
sI296
(dp7284
sI297
(dp7285
sI298
(dp7286
sI299
(dp7287
sI55
g2143
sI201
g5392
sI202
g5426
sI203
g5463
sI205
g5536
sI206
g5568
sI207
g5603
sI208
g5638
sI210
g5702
sI211
g5737
sI212
g5778
sI214
g5831
sI215
g5867
sI219
g5975
sI220
g6002
sI221
g6037
sI222
g6064
sI223
g6092
sI225
g6140
sI228
g6226
sI232
g6302
sI233
g6316
sI234
g6336
sI235
g6352
sI240
g6435
sI241
g6492
sI242
g6546
sI243
g6602
sI244
g6655
sI245
g6709
sI246
g6763
sI247
g6811
sI248
g6858
sI249
g6906
sI250
g6948
sI251
g6994
sI252
g7043
sI253
g7087
sI254
g7128
sI255
g7168
ssI258
(dp7288
I256
g7211
sI257
g7251
sI259
(dp7289
sI260
(dp7290
sI261
(dp7291
sI262
(dp7292
sI263
(dp7293
sI264
(dp7294
sI265
(dp7295
sI266
(dp7296
sI267
(dp7297
sI268
(dp7298
sI269
(dp7299
sI270
(dp7300
sI272
(dp7301
sI273
(dp7302
sI275
(dp7303
sI276
(dp7304
sI277
(dp7305
sI278
(dp7306
sI280
(dp7307
sI281
(dp7308
sI282
(dp7309
sI283
(dp7310
sI284
(dp7311
sI285
(dp7312
sI286
(dp7313
sI287
(dp7314
sI288
(dp7315
sI289
(dp7316
sI290
(dp7317
sI291
(dp7318
sI292
(dp7319
sI294
(dp7320
sI295
(dp7321
sI296
(dp7322
sI297
(dp7323
sI299
(dp7324
sI200
g5357
sI201
g5393
sI202
g5427
sI203
g5464
sI205
g5537
sI206
g5569
sI207
g5604
sI209
g5672
sI210
g5703
sI211
g5738
sI214
g5832
sI216
g5888
sI217
g5916
sI222
g6065
sI225
g6141
sI227
g6197
sI229
g6245
sI230
g6264
sI232
g6303
sI235
g6353
sI236
g6369
sI237
g6385
sI240
g6436
sI241
g6493
sI242
g6547
sI243
g6603
sI244
g6656
sI245
g6710
sI246
g6764
sI247
g6812
sI248
g6859
sI249
g6907
sI250
g6949
sI251
g6995
sI252
g7044
sI253
g7088
sI254
g7129
sI255
g7169
ssI259
(dp7325
I256
g7212
sI257
g7252
sI258
g7289
sI260
(dp7326
sI261
(dp7327
sI262
(dp7328
sI263
(dp7329
sI264
(dp7330
sI265
(dp7331
sI266
(dp7332
sI267
(dp7333
sI268
(dp7334
sI269
(dp7335
sI270
(dp7336
sI271
(dp7337
sI272
(dp7338
sI273
(dp7339
sI274
(dp7340
sI275
(dp7341
sI276
(dp7342
sI277
(dp7343
sI278
(dp7344
sI280
(dp7345
sI281
(dp7346
sI282
(dp7347
sI284
(dp7348
sI285
(dp7349
sI286
(dp7350
sI287
(dp7351
sI288
(dp7352
sI289
(dp7353
sI290
(dp7354
sI291
(dp7355
sI292
(dp7356
sI294
(dp7357
sI297
(dp7358
sI188
g5316
sI200
g5358
sI201
g5394
sI202
g5428
sI203
g5465
sI210
g5704
sI211
g5739
sI212
g5779
sI213
g5804
sI215
g5868
sI216
g5889
sI217
g5917
sI219
g5976
sI220
g6003
sI222
g6066
sI223
g6093
sI224
g6122
sI225
g6142
sI227
g6198
sI229
g6246
sI230
g6265
sI231
g6283
sI240
g6437
sI241
g6494
sI242
g6548
sI243
g6604
sI244
g6657
sI245
g6711
sI246
g6765
sI247
g6813
sI248
g6860
sI249
g6908
sI250
g6950
sI251
g6996
sI252
g7045
sI253
g7089
sI254
g7130
sI255
g7170
ssI260
(dp7359
I256
g7213
sI257
g7253
sI258
g7290
sI259
g7326
sI261
(dp7360
sI262
(dp7361
sI263
(dp7362
sI264
(dp7363
sI265
(dp7364
sI266
(dp7365
sI267
(dp7366
sI268
(dp7367
sI269
(dp7368
sI270
(dp7369
sI271
(dp7370
sI272
(dp7371
sI273
(dp7372
sI274
(dp7373
sI275
(dp7374
sI276
(dp7375
sI279
(dp7376
sI280
(dp7377
sI281
(dp7378
sI282
(dp7379
sI285
(dp7380
sI286
(dp7381
sI288
(dp7382
sI289
(dp7383
sI292
(dp7384
sI293
(dp7385
sI296
(dp7386
sI200
g5359
sI201
g5395
sI203
g5466
sI204
g5503
sI208
g5639
sI209
g5673
sI211
g5740
sI215
g5869
sI216
g5890
sI217
g5918
sI218
g5945
sI221
g6038
sI225
g6143
sI226
g6173
sI228
g6224
sI229
g6247
sI230
g6266
sI231
g6284
sI236
g6370
sI237
g6386
sI240
g6438
sI241
g6495
sI242
g6549
sI243
g6605
sI244
g6658
sI245
g6712
sI246
g6766
sI247
g6814
sI248
g6861
sI249
g6909
sI250
g6951
sI251
g6997
sI252
g7046
sI253
g7090
sI254
g7131
sI255
g7171
ssI261
(dp7387
I256
g7214
sI257
g7254
sI258
g7291
sI259
g7327
sI260
g7360
sI262
(dp7388
sI263
(dp7389
sI264
(dp7390
sI265
(dp7391
sI266
(dp7392
sI267
(dp7393
sI268
(dp7394
sI269
(dp7395
sI270
(dp7396
sI271
(dp7397
sI272
(dp7398
sI273
(dp7399
sI274
(dp7400
sI275
(dp7401
sI276
(dp7402
sI277
(dp7403
sI278
(dp7404
sI280
(dp7405
sI283
(dp7406
sI284
(dp7407
sI287
(dp7408
sI288
(dp7409
sI289
(dp7410
sI291
(dp7411
sI293
(dp7412
sI294
(dp7413
sI295
(dp7414
sI296
(dp7415
sI299
(dp7416
sI201
g5396
sI202
g5429
sI206
g5570
sI207
g5605
sI208
g5640
sI211
g5741
sI212
g5780
sI213
g5805
sI214
g5833
sI215
g5870
sI222
g6067
sI223
g6094
sI224
g6123
sI225
g6144
sI226
g6174
sI227
g6199
sI228
g6225
sI230
g6267
sI233
g6317
sI240
g6439
sI241
g6496
sI242
g6550
sI243
g6606
sI244
g6659
sI245
g6713
sI246
g6767
sI247
g6815
sI248
g6862
sI249
g6910
sI250
g6952
sI251
g6998
sI252
g7047
sI253
g7091
sI254
g7132
sI255
g7172
ssI262
(dp7417
I256
g7215
sI257
g7255
sI258
g7292
sI259
g7328
sI260
g7361
sI261
g7388
sI263
(dp7418
sI264
(dp7419
sI265
(dp7420
sI266
(dp7421
sI267
(dp7422
sI268
(dp7423
sI269
(dp7424
sI271
(dp7425
sI272
(dp7426
sI273
(dp7427
sI275
(dp7428
sI276
(dp7429
sI278
(dp7430
sI279
(dp7431
sI280
(dp7432
sI282
(dp7433
sI283
(dp7434
sI284
(dp7435
sI288
(dp7436
sI290
(dp7437
sI291
(dp7438
sI293
(dp7439
sI295
(dp7440
sI296
(dp7441
sI200
g5360
sI201
g5397
sI202
g5430
sI203
g5467
sI206
g5571
sI207
g5606
sI208
g5641
sI209
g5674
sI211
g5742
sI212
g5781
sI121
g3526
sI218
g5946
sI220
g6004
sI222
g6068
sI223
g6095
sI225
g6145
sI226
g6175
sI227
g6200
sI231
g6285
sI240
g6440
sI241
g6497
sI242
g6551
sI243
g6607
sI244
g6660
sI245
g6714
sI246
g6768
sI247
g6816
sI248
g6863
sI249
g6911
sI250
g6953
sI251
g6999
sI252
g7048
sI253
g7092
sI254
g7133
sI255
g7173
ssI263
(dp7442
I256
g7216
sI257
g7256
sI258
g7293
sI259
g7329
sI260
g7362
sI261
g7389
sI262
g7418
sI264
(dp7443
sI265
(dp7444
sI266
(dp7445
sI267
(dp7446
sI268
(dp7447
sI269
(dp7448
sI270
(dp7449
sI271
(dp7450
sI272
(dp7451
sI273
(dp7452
sI274
(dp7453
sI275
(dp7454
sI276
(dp7455
sI277
(dp7456
sI278
(dp7457
sI279
(dp7458
sI280
(dp7459
sI281
(dp7460
sI282
(dp7461
sI283
(dp7462
sI285
(dp7463
sI286
(dp7464
sI288
(dp7465
sI289
(dp7466
sI292
(dp7467
sI293
(dp7468
sI294
(dp7469
sI295
(dp7470
sI296
(dp7471
sI298
(dp7472
sI13
g767
sI68
g2563
sI200
g5361
sI201
g5398
sI202
g5431
sI203
g5468
sI204
g5504
sI206
g5572
sI207
g5607
sI208
g5642
sI210
g5705
sI211
g5743
sI213
g5806
sI214
g5834
sI217
g5919
sI222
g6069
sI223
g6096
sI225
g6146
sI226
g6176
sI240
g6441
sI241
g6498
sI242
g6552
sI243
g6608
sI244
g6661
sI245
g6715
sI246
g6769
sI247
g6817
sI248
g6864
sI249
g6912
sI250
g6954
sI251
g7000
sI252
g7049
sI253
g7093
sI254
g7134
sI255
g7174
ssI264
(dp7473
I256
g7217
sI257
g7257
sI258
g7294
sI259
g7330
sI260
g7363
sI261
g7390
sI262
g7419
sI263
g7443
sI265
(dp7474
sI266
(dp7475
sI267
(dp7476
sI268
(dp7477
sI269
(dp7478
sI270
(dp7479
sI271
(dp7480
sI272
(dp7481
sI273
(dp7482
sI274
(dp7483
sI275
(dp7484
sI277
(dp7485
sI278
(dp7486
sI280
(dp7487
sI282
(dp7488
sI283
(dp7489
sI284
(dp7490
sI285
(dp7491
sI286
(dp7492
sI287
(dp7493
sI289
(dp7494
sI292
(dp7495
sI294
(dp7496
sI295
(dp7497
sI298
(dp7498
sI299
(dp7499
sI203
g5469
sI204
g5505
sI205
g5538
sI206
g5573
sI207
g5608
sI210
g5706
sI212
g5782
sI214
g5835
sI215
g5871
sI217
g5920
sI218
g5947
sI222
g6070
sI225
g6147
sI226
g6177
sI228
g6227
sI233
g6318
sI240
g6442
sI241
g6499
sI242
g6553
sI243
g6609
sI244
g6662
sI245
g6716
sI246
g6770
sI247
g6818
sI248
g6865
sI249
g6913
sI250
g6955
sI251
g7001
sI252
g7050
sI253
g7094
sI254
g7135
sI255
g7175
ssI265
(dp7500
I256
g7218
sI257
g7258
sI258
g7295
sI259
g7331
sI260
g7364
sI261
g7391
sI262
g7420
sI263
g7444
sI264
g7474
sI266
(dp7501
sI267
(dp7502
sI268
(dp7503
sI269
(dp7504
sI270
(dp7505
sI271
(dp7506
sI272
(dp7507
sI273
(dp7508
sI274
(dp7509
sI275
(dp7510
sI276
(dp7511
sI277
(dp7512
sI278
(dp7513
sI279
(dp7514
sI280
(dp7515
sI281
(dp7516
sI282
(dp7517
sI283
(dp7518
sI284
(dp7519
sI285
(dp7520
sI286
(dp7521
sI288
(dp7522
sI289
(dp7523
sI291
(dp7524
sI292
(dp7525
sI294
(dp7526
sI295
(dp7527
sI299
(dp7528
sI150
g4488
sI202
g5432
sI203
g5470
sI204
g5506
sI205
g5539
sI206
g5574
sI207
g5609
sI208
g5643
sI211
g5744
sI213
g5807
sI214
g5836
sI216
g5891
sI217
g5921
sI218
g5948
sI219
g5977
sI222
g6071
sI240
g6443
sI241
g6500
sI242
g6554
sI243
g6610
sI244
g6663
sI245
g6717
sI246
g6771
sI247
g6819
sI248
g6866
sI249
g6914
sI250
g6956
sI251
g7002
sI252
g7051
sI253
g7095
sI254
g7136
sI255
g7176
ssI266
(dp7529
I256
g7219
sI257
g7259
sI258
g7296
sI259
g7332
sI260
g7365
sI261
g7392
sI262
g7421
sI263
g7445
sI264
g7475
sI265
g7501
sI267
(dp7530
sI268
(dp7531
sI269
(dp7532
sI270
(dp7533
sI271
(dp7534
sI272
(dp7535
sI273
(dp7536
sI274
(dp7537
sI275
(dp7538
sI276
(dp7539
sI277
(dp7540
sI278
(dp7541
sI279
(dp7542
sI280
(dp7543
sI281
(dp7544
sI282
(dp7545
sI283
(dp7546
sI284
(dp7547
sI285
(dp7548
sI288
(dp7549
sI290
(dp7550
sI291
(dp7551
sI293
(dp7552
sI294
(dp7553
sI295
(dp7554
sI296
(dp7555
sI297
(dp7556
sI299
(dp7557
sI200
g5362
sI201
g5399
sI203
g5471
sI204
g5507
sI207
g5610
sI208
g5644
sI210
g5707
sI211
g5745
sI214
g5837
sI218
g5949
sI220
g6005
sI221
g6039
sI223
g6097
sI225
g6148
sI240
g6444
sI241
g6501
sI242
g6555
sI243
g6611
sI244
g6664
sI245
g6718
sI246
g6772
sI247
g6820
sI248
g6867
sI249
g6915
sI250
g6957
sI251
g7003
sI252
g7052
sI253
g7096
sI254
g7137
sI255
g7177
ssI267
(dp7558
I256
g7220
sI257
g7260
sI258
g7297
sI259
g7333
sI260
g7366
sI261
g7393
sI262
g7422
sI263
g7446
sI264
g7476
sI265
g7502
sI266
g7530
sI268
(dp7559
sI269
(dp7560
sI270
(dp7561
sI271
(dp7562
sI272
(dp7563
sI273
(dp7564
sI274
(dp7565
sI275
(dp7566
sI276
(dp7567
sI278
(dp7568
sI279
(dp7569
sI281
(dp7570
sI283
(dp7571
sI285
(dp7572
sI286
(dp7573
sI287
(dp7574
sI288
(dp7575
sI290
(dp7576
sI292
(dp7577
sI293
(dp7578
sI294
(dp7579
sI296
(dp7580
sI200
g5363
sI201
g5400
sI202
g5433
sI203
g5472
sI205
g5540
sI208
g5645
sI209
g5675
sI210
g5708
sI211
g5746
sI216
g5892
sI219
g5978
sI220
g6006
sI223
g6098
sI240
g6445
sI241
g6502
sI242
g6556
sI243
g6612
sI244
g6665
sI245
g6719
sI246
g6773
sI247
g6821
sI248
g6868
sI249
g6916
sI250
g6958
sI251
g7004
sI252
g7053
sI253
g7097
sI254
g7138
sI255
g7178
ssI268
(dp7581
I256
g7221
sI257
g7261
sI258
g7298
sI259
g7334
sI260
g7367
sI261
g7394
sI262
g7423
sI263
g7447
sI264
g7477
sI265
g7503
sI266
g7531
sI267
g7559
sI269
(dp7582
sI270
(dp7583
sI271
(dp7584
sI272
(dp7585
sI274
(dp7586
sI275
(dp7587
sI276
(dp7588
sI277
(dp7589
sI278
(dp7590
sI280
(dp7591
sI281
(dp7592
sI283
(dp7593
sI284
(dp7594
sI285
(dp7595
sI286
(dp7596
sI287
(dp7597
sI288
(dp7598
sI293
(dp7599
sI294
(dp7600
sI295
(dp7601
sI296
(dp7602
sI297
(dp7603
sI298
(dp7604
sI200
g5364
sI202
g5434
sI203
g5473
sI208
g5646
sI210
g5709
sI211
g5747
sI214
g5838
sI216
g5893
sI219
g5979
sI227
g6201
sI228
g6228
sI229
g6248
sI240
g6446
sI241
g6503
sI242
g6557
sI243
g6613
sI244
g6666
sI245
g6720
sI246
g6774
sI247
g6822
sI248
g6869
sI249
g6917
sI250
g6959
sI251
g7005
sI252
g7054
sI253
g7098
sI254
g7139
sI255
g7179
ssI269
(dp7605
I256
g7222
sI257
g7262
sI258
g7299
sI259
g7335
sI260
g7368
sI261
g7395
sI262
g7424
sI263
g7448
sI264
g7478
sI265
g7504
sI266
g7532
sI267
g7560
sI268
g7582
sI270
(dp7606
sI271
(dp7607
sI272
(dp7608
sI273
(dp7609
sI275
(dp7610
sI276
(dp7611
sI277
(dp7612
sI278
(dp7613
sI279
(dp7614
sI283
(dp7615
sI285
(dp7616
sI286
(dp7617
sI287
(dp7618
sI289
(dp7619
sI291
(dp7620
sI292
(dp7621
sI295
(dp7622
sI200
g5365
sI202
g5435
sI203
g5474
sI210
g5710
sI213
g5808
sI214
g5839
sI215
g5872
sI217
g5922
sI220
g6007
sI222
g6072
sI223
g6099
sI240
g6447
sI241
g6504
sI242
g6558
sI243
g6614
sI244
g6667
sI245
g6721
sI246
g6775
sI247
g6823
sI248
g6870
sI249
g6918
sI250
g6960
sI251
g7006
sI252
g7055
sI253
g7099
sI254
g7140
sI255
g7180
ssI270
(dp7623
I256
g7223
sI257
g7263
sI258
g7300
sI259
g7336
sI260
g7369
sI261
g7396
sI263
g7449
sI264
g7479
sI265
g7505
sI266
g7533
sI267
g7561
sI268
g7583
sI269
g7606
sI271
(dp7624
sI273
(dp7625
sI274
(dp7626
sI275
(dp7627
sI277
(dp7628
sI278
(dp7629
sI279
(dp7630
sI286
(dp7631
sI290
(dp7632
sI293
(dp7633
sI295
(dp7634
sI299
(dp7635
sI203
g5475
sI205
g5541
sI210
g5711
sI211
g5748
sI213
g5809
sI214
g5840
sI219
g5980
sI220
g6008
sI221
g6040
sI37
g1361
sI229
g6249
sI230
g6268
sI240
g6448
sI241
g6505
sI242
g6559
sI243
g6615
sI244
g6668
sI245
g6722
sI246
g6776
sI247
g6824
sI248
g6871
sI249
g6919
sI250
g6961
sI251
g7007
sI252
g7056
sI253
g7100
sI254
g7141
sI255
g7181
ssI271
(dp7636
I256
g7224
sI257
g7264
sI259
g7337
sI260
g7370
sI261
g7397
sI262
g7425
sI263
g7450
sI264
g7480
sI265
g7506
sI266
g7534
sI267
g7562
sI268
g7584
sI269
g7607
sI270
g7624
sI272
(dp7637
sI273
(dp7638
sI274
(dp7639
sI275
(dp7640
sI277
(dp7641
sI278
(dp7642
sI279
(dp7643
sI280
(dp7644
sI281
(dp7645
sI282
(dp7646
sI283
(dp7647
sI284
(dp7648
sI288
(dp7649
sI289
(dp7650
sI290
(dp7651
sI292
(dp7652
sI293
(dp7653
sI294
(dp7654
sI295
(dp7655
sI296
(dp7656
sI299
(dp7657
sI200
g5366
sI204
g5508
sI205
g5542
sI210
g5712
sI211
g5749
sI212
g5783
sI215
g5873
sI218
g5950
sI221
g6041
sI223
g6100
sI225
g6149
sI240
g6449
sI241
g6506
sI242
g6560
sI243
g6616
sI244
g6669
sI245
g6723
sI246
g6777
sI247
g6825
sI248
g6872
sI249
g6920
sI250
g6962
sI251
g7008
sI252
g7057
sI254
g7142
sI255
g7182
ssI272
(dp7658
I256
g7225
sI257
g7265
sI258
g7301
sI259
g7338
sI260
g7371
sI261
g7398
sI262
g7426
sI263
g7451
sI264
g7481
sI265
g7507
sI266
g7535
sI267
g7563
sI268
g7585
sI269
g7608
sI271
g7637
sI273
(dp7659
sI275
(dp7660
sI276
(dp7661
sI277
(dp7662
sI278
(dp7663
sI279
(dp7664
sI280
(dp7665
sI283
(dp7666
sI284
(dp7667
sI288
(dp7668
sI291
(dp7669
sI292
(dp7670
sI293
(dp7671
sI294
(dp7672
sI295
(dp7673
sI296
(dp7674
sI299
(dp7675
sI200
g5367
sI202
g5436
sI203
g5476
sI205
g5543
sI206
g5575
sI208
g5647
sI209
g5676
sI212
g5784
sI213
g5810
sI214
g5841
sI240
g6450
sI241
g6507
sI242
g6561
sI243
g6617
sI244
g6670
sI245
g6724
sI246
g6778
sI247
g6826
sI248
g6873
sI249
g6921
sI250
g6963
sI251
g7009
sI252
g7058
sI253
g7101
sI255
g7183
ssI273
(dp7676
I256
g7226
sI257
g7266
sI258
g7302
sI259
g7339
sI260
g7372
sI261
g7399
sI262
g7427
sI263
g7452
sI264
g7482
sI265
g7508
sI266
g7536
sI267
g7564
sI269
g7609
sI270
g7625
sI271
g7638
sI272
g7659
sI274
(dp7677
sI276
(dp7678
sI278
(dp7679
sI279
(dp7680
sI281
(dp7681
sI282
(dp7682
sI284
(dp7683
sI285
(dp7684
sI286
(dp7685
sI288
(dp7686
sI291
(dp7687
sI292
(dp7688
sI293
(dp7689
sI295
(dp7690
sI296
(dp7691
sI298
(dp7692
sI200
g5368
sI201
g5401
sI207
g5611
sI209
g5677
sI211
g5750
sI212
g5785
sI217
g5923
sI218
g5951
sI240
g6451
sI241
g6508
sI242
g6562
sI243
g6618
sI244
g6671
sI245
g6725
sI246
g6779
sI247
g6827
sI248
g6874
sI249
g6922
sI250
g6964
sI251
g7010
sI252
g7059
sI253
g7102
sI254
g7143
sI255
g7184
ssI274
(dp7693
I256
g7227
sI257
g7267
sI259
g7340
sI260
g7373
sI261
g7400
sI263
g7453
sI264
g7483
sI265
g7509
sI266
g7537
sI267
g7565
sI268
g7586
sI270
g7626
sI271
g7639
sI273
g7677
sI275
(dp7694
sI276
(dp7695
sI277
(dp7696
sI279
(dp7697
sI283
(dp7698
sI286
(dp7699
sI287
(dp7700
sI288
(dp7701
sI289
(dp7702
sI291
(dp7703
sI292
(dp7704
sI295
(dp7705
sI297
(dp7706
sI202
g5437
sI204
g5509
sI205
g5544
sI209
g5678
sI211
g5751
sI213
g5811
sI217
g5924
sI220
g6009
sI222
g6073
sI223
g6101
sI226
g6178
sI240
g6452
sI241
g6509
sI242
g6563
sI243
g6619
sI244
g6672
sI245
g6726
sI246
g6780
sI247
g6828
sI248
g6875
sI249
g6923
sI251
g7011
sI252
g7060
sI253
g7103
sI254
g7144
sI255
g7185
ssI275
(dp7707
I256
g7228
sI257
g7268
sI258
g7303
sI259
g7341
sI260
g7374
sI261
g7401
sI262
g7428
sI263
g7454
sI264
g7484
sI265
g7510
sI266
g7538
sI267
g7566
sI268
g7587
sI269
g7610
sI270
g7627
sI271
g7640
sI272
g7660
sI274
g7694
sI279
(dp7708
sI280
(dp7709
sI281
(dp7710
sI283
(dp7711
sI288
(dp7712
sI292
(dp7713
sI295
(dp7714
sI200
g5369
sI203
g5477
sI204
g5510
sI206
g5576
sI210
g5713
sI211
g5752
sI240
g6453
sI241
g6510
sI242
g6564
sI243
g6620
sI244
g6673
sI245
g6727
sI246
g6781
sI247
g6829
sI248
g6876
sI249
g6924
sI250
g6965
sI251
g7012
sI252
g7061
sI253
g7104
sI254
g7145
sI255
g7186
ssI276
(dp7715
I256
g7229
sI257
g7269
sI258
g7304
sI259
g7342
sI260
g7375
sI261
g7402
sI262
g7429
sI263
g7455
sI265
g7511
sI266
g7539
sI267
g7567
sI268
g7588
sI269
g7611
sI272
g7661
sI273
g7678
sI274
g7695
sI277
(dp7716
sI278
(dp7717
sI279
(dp7718
sI281
(dp7719
sI283
(dp7720
sI286
(dp7721
sI288
(dp7722
sI289
(dp7723
sI292
(dp7724
sI295
(dp7725
sI297
(dp7726
sI298
(dp7727
sI200
g5370
sI201
g5402
sI203
g5478
sI206
g5577
sI208
g5648
sI209
g5679
sI211
g5753
sI213
g5812
sI240
g6454
sI241
g6511
sI242
g6565
sI243
g6621
sI244
g6674
sI245
g6728
sI246
g6782
sI247
g6830
sI248
g6877
sI249
g6925
sI250
g6966
sI251
g7013
sI252
g7062
sI253
g7105
sI254
g7146
sI255
g7187
ssI277
(dp7728
I256
g7230
sI257
g7270
sI258
g7305
sI259
g7343
sI261
g7403
sI263
g7456
sI264
g7485
sI265
g7512
sI266
g7540
sI268
g7589
sI269
g7612
sI270
g7628
sI271
g7641
sI272
g7662
sI274
g7696
sI276
g7716
sI280
(dp7729
sI284
(dp7730
sI286
(dp7731
sI287
(dp7732
sI288
(dp7733
sI289
(dp7734
sI290
(dp7735
sI292
(dp7736
sI293
(dp7737
sI294
(dp7738
sI296
(dp7739
sI297
(dp7740
sI299
(dp7741
sI200
g5371
sI201
g5403
sI212
g5786
sI214
g5842
sI217
g5925
sI218
g5952
sI219
g5981
sI220
g6010
sI226
g6179
sI227
g6202
sI228
g6234
sI231
g6291
sI242
g6566
sI244
g6675
sI245
g6729
sI246
g6783
sI247
g6831
sI248
g6878
sI249
g6926
sI250
g6967
sI251
g7014
sI252
g7063
sI254
g7147
sI255
g7188
ssI278
(dp7742
I256
g7231
sI257
g7271
sI258
g7306
sI259
g7344
sI261
g7404
sI262
g7430
sI263
g7457
sI264
g7486
sI265
g7513
sI266
g7541
sI267
g7568
sI268
g7590
sI269
g7613
sI270
g7629
sI271
g7642
sI272
g7663
sI273
g7679
sI276
g7717
sI279
(dp7743
sI280
(dp7744
sI283
(dp7745
sI284
(dp7746
sI287
(dp7747
sI295
(dp7748
sI296
(dp7749
sI200
g5372
sI204
g5511
sI206
g5578
sI207
g5612
sI210
g5714
sI214
g5843
sI240
g6455
sI241
g6512
sI242
g6567
sI243
g6622
sI244
g6676
sI245
g6730
sI246
g6784
sI247
g6832
sI248
g6879
sI249
g6927
sI250
g6968
sI251
g7015
sI252
g7064
sI253
g7106
sI254
g7148
sI255
g7189
ssI279
(dp7750
I257
g7272
sI260
g7376
sI262
g7431
sI263
g7458
sI265
g7514
sI266
g7542
sI267
g7569
sI269
g7614
sI270
g7630
sI271
g7643
sI272
g7664
sI273
g7680
sI274
g7697
sI275
g7708
sI276
g7718
sI278
g7743
sI281
(dp7751
sI283
(dp7752
sI291
(dp7753
sI298
(dp7754
sI203
g5479
sI204
g5512
sI205
g5545
sI206
g5579
sI214
g5844
sI218
g5953
sI220
g6011
sI221
g6042
sI240
g6456
sI241
g6513
sI242
g6568
sI243
g6623
sI244
g6677
sI245
g6731
sI246
g6785
sI247
g6833
sI248
g6880
sI249
g6928
sI250
g6969
sI251
g7016
sI252
g7065
sI253
g7107
sI254
g7149
sI255
g7190
ssI280
(dp7755
I256
g7232
sI258
g7307
sI259
g7345
sI260
g7377
sI261
g7405
sI262
g7432
sI263
g7459
sI264
g7487
sI265
g7515
sI266
g7543
sI268
g7591
sI271
g7644
sI272
g7665
sI275
g7709
sI277
g7729
sI278
g7744
sI281
(dp7756
sI283
(dp7757
sI284
(dp7758
sI287
(dp7759
sI290
(dp7760
sI291
(dp7761
sI294
(dp7762
sI296
(dp7763
sI298
(dp7764
sI299
(dp7765
sI201
g5404
sI202
g5438
sI203
g5480
sI204
g5513
sI208
g5649
sI212
g5787
sI219
g5982
sI224
g6133
sI225
g6150
sI240
g6457
sI241
g6514
sI242
g6569
sI243
g6624
sI244
g6678
sI245
g6732
sI246
g6786
sI247
g6834
sI248
g6881
sI249
g6929
sI250
g6970
sI252
g7066
sI253
g7108
sI254
g7150
sI255
g7191
ssI281
(dp7766
I257
g7273
sI258
g7308
sI259
g7346
sI260
g7378
sI263
g7460
sI265
g7516
sI266
g7544
sI267
g7570
sI268
g7592
sI271
g7645
sI273
g7681
sI275
g7710
sI276
g7719
sI279
g7751
sI280
g7756
sI283
(dp7767
sI284
(dp7768
sI285
(dp7769
sI291
(dp7770
sI293
(dp7771
sI296
(dp7772
sI297
(dp7773
sI299
(dp7774
sI126
g3687
sI200
g5373
sI202
g5439
sI203
g5481
sI204
g5514
sI205
g5546
sI206
g5580
sI207
g5613
sI208
g5650
sI211
g5754
sI219
g5983
sI220
g6012
sI224
g6134
sI234
g6346
sI240
g6458
sI242
g6570
sI243
g6625
sI244
g6679
sI245
g6733
sI247
g6835
sI248
g6882
sI249
g6930
sI251
g7017
sI252
g7067
sI253
g7109
sI254
g7151
ssI282
(dp7775
I256
g7233
sI258
g7309
sI259
g7347
sI260
g7379
sI262
g7433
sI263
g7461
sI264
g7488
sI265
g7517
sI266
g7545
sI271
g7646
sI273
g7682
sI284
(dp7776
sI285
(dp7777
sI290
(dp7778
sI293
(dp7779
sI294
(dp7780
sI296
(dp7781
sI297
(dp7782
sI200
g5374
sI206
g5581
sI207
g5614
sI214
g5845
sI216
g5894
sI218
g5954
sI222
g6074
sI227
g6203
sI228
g6239
sI230
g6277
sI231
g6296
sI236
g6379
sI240
g6459
sI241
g6515
sI242
g6571
sI243
g6626
sI244
g6680
sI245
g6734
sI246
g6787
sI248
g6883
sI249
g6931
sI250
g6971
sI251
g7018
sI252
g7068
sI253
g7110
sI254
g7152
sI255
g7192
ssI283
(dp7783
I256
g7234
sI257
g7274
sI258
g7310
sI261
g7406
sI262
g7434
sI263
g7462
sI264
g7489
sI265
g7518
sI266
g7546
sI267
g7571
sI268
g7593
sI269
g7615
sI142
g4082
sI271
g7647
sI272
g7666
sI274
g7698
sI275
g7711
sI276
g7720
sI278
g7745
sI279
g7752
sI280
g7757
sI281
g7767
sI286
(dp7784
sI287
(dp7785
sI298
(dp7786
sI299
(dp7787
sI202
g5440
sI203
g5482
sI205
g5547
sI206
g5582
sI240
g6460
sI241
g6516
sI242
g6572
sI243
g6627
sI244
g6681
sI245
g6735
sI246
g6788
sI247
g6836
sI248
g6884
sI250
g6972
sI251
g7019
sI252
g7069
sI253
g7111
sI254
g7153
sI255
g7193
ssI284
(dp7788
I256
g7235
sI257
g7275
sI258
g7311
sI259
g7348
sI261
g7407
sI262
g7435
sI264
g7490
sI265
g7519
sI266
g7547
sI268
g7594
sI271
g7648
sI272
g7667
sI273
g7683
sI277
g7730
sI278
g7746
sI280
g7758
sI281
g7768
sI282
g7776
sI291
(dp7789
sI294
(dp7790
sI206
g5583
sI207
g5615
sI208
g5651
sI210
g5715
sI211
g5755
sI212
g5788
sI218
g5955
sI240
g6461
sI241
g6517
sI242
g6573
sI243
g6628
sI244
g6682
sI245
g6736
sI246
g6789
sI247
g6837
sI248
g6885
sI249
g6932
sI251
g7020
sI252
g7070
sI253
g7112
sI254
g7154
sI255
g7194
ssI285
(dp7791
I256
g7236
sI257
g7276
sI258
g7312
sI259
g7349
sI260
g7380
sI263
g7463
sI264
g7491
sI265
g7520
sI266
g7548
sI267
g7572
sI268
g7595
sI269
g7616
sI273
g7684
sI281
g7769
sI282
g7777
sI287
(dp7792
sI288
(dp7793
sI289
(dp7794
sI290
(dp7795
sI291
(dp7796
sI292
(dp7797
sI295
(dp7798
sI297
(dp7799
sI298
(dp7800
sI203
g5483
sI204
g5515
sI206
g5584
sI207
g5616
sI208
g5652
sI210
g5716
sI211
g5756
sI212
g5789
sI214
g5846
sI216
g5895
sI220
g6013
sI221
g6043
sI240
g6462
sI241
g6518
sI242
g6574
sI243
g6629
sI244
g6683
sI245
g6737
sI246
g6790
sI248
g6886
sI249
g6933
sI250
g6973
sI252
g7071
sI253
g7113
sI255
g7195
ssI286
(dp7801
I256
g7237
sI257
g7277
sI258
g7313
sI259
g7350
sI260
g7381
sI263
g7464
sI264
g7492
sI265
g7521
sI267
g7573
sI268
g7596
sI269
g7617
sI270
g7631
sI273
g7685
sI274
g7699
sI276
g7721
sI277
g7731
sI283
g7784
sI288
(dp7802
sI289
(dp7803
sI292
(dp7804
sI296
(dp7805
sI297
(dp7806
sI298
(dp7807
sI201
g5405
sI202
g5441
sI205
g5548
sI206
g5585
sI208
g5653
sI209
g5680
sI217
g5926
sI221
g6044
sI240
g6463
sI241
g6519
sI242
g6575
sI243
g6630
sI244
g6684
sI245
g6738
sI246
g6791
sI247
g6838
sI248
g6887
sI249
g6934
sI250
g6974
sI251
g7021
sI252
g7072
sI254
g7155
sI255
g7196
ssI287
(dp7808
I256
g7238
sI257
g7278
sI258
g7314
sI259
g7351
sI261
g7408
sI264
g7493
sI267
g7574
sI268
g7597
sI269
g7618
sI274
g7700
sI277
g7732
sI278
g7747
sI280
g7759
sI283
g7785
sI285
g7792
sI289
(dp7809
sI290
(dp7810
sI297
(dp7811
sI202
g5442
sI204
g5516
sI205
g5549
sI208
g5654
sI214
g5847
sI223
g6102
sI225
g6151
sI226
g6180
sI227
g6204
sI240
g6464
sI241
g6520
sI242
g6576
sI243
g6631
sI244
g6685
sI245
g6739
sI246
g6792
sI247
g6839
sI248
g6888
sI249
g6935
sI250
g6975
sI251
g7022
sI252
g7073
sI253
g7114
sI254
g7156
sI255
g7197
ssI288
(dp7812
I256
g7239
sI258
g7315
sI259
g7352
sI260
g7382
sI261
g7409
sI262
g7436
sI263
g7465
sI265
g7522
sI266
g7549
sI267
g7575
sI268
g7598
sI271
g7649
sI272
g7668
sI273
g7686
sI274
g7701
sI275
g7712
sI276
g7722
sI277
g7733
sI285
g7793
sI286
g7802
sI296
(dp7813
sI298
(dp7814
sI201
g5406
sI209
g5681
sI211
g5757
sI212
g5790
sI213
g5813
sI220
g6014
sI240
g6465
sI242
g6577
sI243
g6632
sI244
g6686
sI245
g6740
sI246
g6793
sI247
g6840
sI248
g6889
sI249
g6936
sI250
g6976
sI251
g7023
sI252
g7074
sI253
g7115
sI255
g7198
ssI289
(dp7815
I256
g7240
sI257
g7279
sI258
g7316
sI259
g7353
sI260
g7383
sI261
g7410
sI263
g7466
sI264
g7494
sI265
g7523
sI269
g7619
sI271
g7650
sI274
g7702
sI276
g7723
sI277
g7734
sI285
g7794
sI286
g7803
sI287
g7809
sI292
(dp7816
sI297
(dp7817
sI298
(dp7818
sI72
g2642
sI200
g5375
sI202
g5443
sI203
g5484
sI210
g5717
sI211
g5758
sI214
g5848
sI217
g5927
sI225
g6152
sI228
g6223
sI241
g6521
sI242
g6578
sI243
g6633
sI244
g6687
sI245
g6741
sI246
g6794
sI247
g6841
sI249
g6937
sI250
g6977
sI251
g7024
sI252
g7075
sI253
g7116
sI254
g7157
sI255
g7199
ssI290
(dp7819
I256
g7241
sI257
g7280
sI258
g7317
sI259
g7354
sI262
g7437
sI266
g7550
sI267
g7576
sI270
g7632
sI271
g7651
sI277
g7735
sI280
g7760
sI282
g7778
sI285
g7795
sI287
g7810
sI291
(dp7820
sI293
(dp7821
sI297
(dp7822
sI299
(dp7823
sI200
g5376
sI203
g5485
sI204
g5517
sI207
g5617
sI212
g5791
sI216
g5896
sI169
g5124
sI220
g6015
sI223
g6103
sI224
g6121
sI225
g6153
sI102
g2947
sI231
g6282
sI240
g6466
sI241
g6522
sI242
g6579
sI243
g6634
sI244
g6688
sI245
g6742
sI247
g6842
sI248
g6890
sI250
g6978
sI251
g7025
sI252
g7076
sI253
g7117
sI254
g7158
sI255
g7200
ssI291
(dp7824
I257
g7281
sI258
g7318
sI259
g7355
sI261
g7411
sI262
g7438
sI265
g7524
sI266
g7551
sI269
g7620
sI272
g7669
sI273
g7687
sI274
g7703
sI279
g7753
sI280
g7761
sI281
g7770
sI284
g7789
sI285
g7796
sI290
g7820
sI292
(dp7825
sI294
(dp7826
sI298
(dp7827
sI204
g5518
sI205
g5550
sI207
g5618
sI209
g5682
sI211
g5759
sI212
g5792
sI216
g5897
sI220
g6016
sI240
g6467
sI241
g6523
sI242
g6580
sI243
g6635
sI244
g6689
sI245
g6743
sI246
g6795
sI247
g6843
sI248
g6891
sI249
g6938
sI250
g6979
sI251
g7026
sI252
g7077
sI253
g7118
sI255
g7201
ssI292
(dp7828
I256
g7242
sI258
g7319
sI259
g7356
sI260
g7384
sI263
g7467
sI264
g7495
sI265
g7525
sI267
g7577
sI269
g7621
sI271
g7652
sI272
g7670
sI273
g7688
sI274
g7704
sI275
g7713
sI276
g7724
sI277
g7736
sI285
g7797
sI286
g7804
sI289
g7816
sI291
g7825
sI294
(dp7829
sI297
(dp7830
sI298
(dp7831
sI299
(dp7832
sI204
g5519
sI209
g5683
sI216
g5898
sI217
g5928
sI218
g5956
sI240
g6468
sI241
g6524
sI242
g6581
sI243
g6636
sI244
g6690
sI245
g6744
sI246
g6796
sI248
g6892
sI249
g6939
sI250
g6980
sI251
g7027
sI252
g7078
sI253
g7119
sI254
g7159
sI255
g7202
ssI293
(dp7833
I256
g7243
sI257
g7282
sI130
g3770
sI260
g7385
sI261
g7412
sI262
g7439
sI263
g7468
sI266
g7552
sI267
g7578
sI268
g7599
sI270
g7633
sI271
g7653
sI272
g7671
sI273
g7689
sI277
g7737
sI281
g7771
sI282
g7779
sI290
g7821
sI295
(dp7834
sI298
(dp7835
sI299
(dp7836
sI200
g5377
sI203
g5486
sI205
g5551
sI209
g5684
sI213
g5814
sI218
g5957
sI219
g5984
sI223
g6104
sI225
g6154
sI240
g6469
sI241
g6525
sI243
g6637
sI244
g6691
sI245
g6745
sI246
g6797
sI247
g6844
sI248
g6893
sI249
g6940
sI250
g6981
sI251
g7028
sI254
g7160
sI255
g7203
ssI294
(dp7837
I256
g7244
sI258
g7320
sI259
g7357
sI261
g7413
sI263
g7469
sI264
g7496
sI265
g7526
sI266
g7553
sI267
g7579
sI268
g7600
sI271
g7654
sI272
g7672
sI277
g7738
sI280
g7762
sI282
g7780
sI284
g7790
sI291
g7826
sI292
g7829
sI296
(dp7838
sI297
(dp7839
sI298
(dp7840
sI299
(dp7841
sI202
g5444
sI205
g5552
sI207
g5619
sI212
g5793
sI216
g5899
sI217
g5929
sI218
g5958
sI220
g6017
sI221
g6045
sI223
g6105
sI240
g6470
sI241
g6526
sI242
g6582
sI243
g6638
sI244
g6692
sI245
g6746
sI248
g6894
sI250
g6982
sI251
g7029
sI252
g7079
sI254
g7161
sI255
g7204
ssI295
(dp7842
I256
g7245
sI257
g7283
sI258
g7321
sI261
g7414
sI262
g7440
sI263
g7470
sI264
g7497
sI265
g7527
sI266
g7554
sI268
g7601
sI269
g7622
sI270
g7634
sI271
g7655
sI272
g7673
sI273
g7690
sI274
g7705
sI275
g7714
sI276
g7725
sI278
g7748
sI285
g7798
sI293
g7834
sI205
g5553
sI207
g5620
sI209
g5685
sI211
g5760
sI214
g5849
sI240
g6471
sI242
g6583
sI243
g6639
sI244
g6693
sI245
g6747
sI246
g6798
sI247
g6845
sI248
g6895
sI249
g6941
sI250
g6983
sI251
g7030
sI252
g7080
sI253
g7120
sI255
g7205
ssI296
(dp7843
I256
g7246
sI257
g7284
sI258
g7322
sI260
g7386
sI261
g7415
sI262
g7441
sI263
g7471
sI266
g7555
sI267
g7580
sI268
g7602
sI271
g7656
sI272
g7674
sI273
g7691
sI277
g7739
sI278
g7749
sI280
g7763
sI281
g7772
sI282
g7781
sI286
g7805
sI288
g7813
sI294
g7838
sI200
g5378
sI201
g5407
sI207
g5621
sI209
g5686
sI240
g6472
sI241
g6527
sI242
g6584
sI243
g6640
sI244
g6694
sI245
g6748
sI247
g6846
sI248
g6896
sI249
g6942
sI250
g6984
sI251
g7031
sI252
g7081
sI253
g7121
sI254
g7162
sI255
g7206
ssI297
(dp7844
I256
g7247
sI257
g7285
sI258
g7323
sI259
g7358
sI266
g7556
sI268
g7603
sI274
g7706
sI276
g7726
sI277
g7740
sI281
g7773
sI282
g7782
sI285
g7799
sI286
g7806
sI287
g7811
sI289
g7817
sI290
g7822
sI292
g7830
sI294
g7839
sI298
(dp7845
sI299
(dp7846
sI201
g5408
sI202
g5445
sI203
g5487
sI205
g5554
sI212
g5794
sI216
g5900
sI218
g5959
sI225
g6155
sI240
g6473
sI241
g6528
sI242
g6585
sI244
g6695
sI245
g6749
sI246
g6799
sI247
g6847
sI249
g6943
sI250
g6985
sI251
g7032
sI252
g7082
sI253
g7122
sI254
g7163
sI255
g7207
ssI298
(dp7847
I256
g7248
sI257
g7286
sI263
g7472
sI264
g7498
sI268
g7604
sI273
g7692
sI276
g7727
sI279
g7754
sI280
g7764
sI283
g7786
sI285
g7800
sI286
g7807
sI288
g7814
sI289
g7818
sI291
g7827
sI292
g7831
sI293
g7835
sI294
g7840
sI297
g7845
sI201
g5409
sI202
g5446
sI204
g5520
sI210
g5718
sI218
g5960
sI219
g5985
sI220
g6018
sI221
g6046
sI224
g6126
sI235
g6354
sI236
g6371
sI240
g6474
sI241
g6529
sI242
g6586
sI245
g6750
sI248
g6897
sI249
g6944
sI252
g7083
sI253
g7123
ssI299
(dp7848
I256
g7249
sI257
g7287
sI258
g7324
sI261
g7416
sI264
g7499
sI265
g7528
sI266
g7557
sI270
g7635
sI271
g7657
sI272
g7675
sI277
g7741
sI280
g7765
sI281
g7774
sI283
g7787
sI290
g7823
sI292
g7832
sI293
g7836
sI294
g7841
sI297
g7846
sI203
g5488
sI205
g5555
sI208
g5655
sI213
g5815
sI218
g5961
sI220
g6019
sI225
g6156
sI240
g6475
sI241
g6530
sI242
g6587
sI243
g6641
sI244
g6696
sI245
g6751
sI246
g6800
sI247
g6848
sI249
g6945
sI250
g6986
sI251
g7033
sI252
g7084
sI254
g7164
sI255
g7208
sssS'adj'
p7849
g313
sb.