ccopy_reg
_reconstructor
p0
(cnetworkx.classes.graph
Graph
p1
c__builtin__
object
p2
Ntp3
Rp4
(dp5
S'node'
p6
(dp7
I0
(dp8
sI1
(dp9
sI2
(dp10
sI3
(dp11
sI4
(dp12
sI5
(dp13
sI6
(dp14
sI7
(dp15
sI8
(dp16
sI9
(dp17
sI10
(dp18
sI11
(dp19
sI12
(dp20
sI13
(dp21
sI14
(dp22
sI15
(dp23
sI16
(dp24
sI17
(dp25
sI18
(dp26
sI19
(dp27
sI20
(dp28
sI21
(dp29
sI22
(dp30
sI23
(dp31
sI24
(dp32
sI25
(dp33
sI26
(dp34
sI27
(dp35
sI28
(dp36
sI29
(dp37
sI30
(dp38
sI31
(dp39
sI32
(dp40
sI33
(dp41
sI34
(dp42
sI35
(dp43
sI36
(dp44
sI37
(dp45
sI38
(dp46
sI39
(dp47
sI40
(dp48
sI41
(dp49
sI42
(dp50
sI43
(dp51
sI44
(dp52
sI45
(dp53
sI46
(dp54
sI47
(dp55
sI48
(dp56
sI49
(dp57
sI50
(dp58
sI51
(dp59
sI52
(dp60
sI53
(dp61
sI54
(dp62
sI55
(dp63
sI56
(dp64
sI57
(dp65
sI58
(dp66
sI59
(dp67
ssS'graph'
p68
(dp69
S'name'
p70
S'(Powerlaw-Cluster Graph)_with_int_labels'
p71
ssS'edge'
p72
(dp73
I0
(dp74
I10
(dp75
sI12
(dp76
sI13
(dp77
sI15
(dp78
sI18
(dp79
sI20
(dp80
ssI1
(dp81
I10
(dp82
sI11
(dp83
sI12
(dp84
sI13
(dp85
sI14
(dp86
sI15
(dp87
sI16
(dp88
sI17
(dp89
sI18
(dp90
sI52
(dp91
ssI2
(dp92
I10
(dp93
sI11
(dp94
sI12
(dp95
sI14
(dp96
sI17
(dp97
sI18
(dp98
sI19
(dp99
ssI3
(dp100
I41
(dp101
sI10
(dp102
sI11
(dp103
sI12
(dp104
sI13
(dp105
sI47
(dp106
ssI4
(dp107
I16
(dp108
sI10
(dp109
sI11
(dp110
sI14
(dp111
ssI5
(dp112
I10
(dp113
sI11
(dp114
sI12
(dp115
sI13
(dp116
sI14
(dp117
sI15
(dp118
sI17
(dp119
sI18
(dp120
ssI6
(dp121
I10
(dp122
sI11
(dp123
sI12
(dp124
sI13
(dp125
sI14
(dp126
sI15
(dp127
sI16
(dp128
sI17
(dp129
sI19
(dp130
ssI7
(dp131
I16
(dp132
sI10
(dp133
sI11
(dp134
sI15
(dp135
ssI8
(dp136
I10
(dp137
sI11
(dp138
sI12
(dp139
sI13
(dp140
sI14
(dp141
ssI9
(dp142
I44
(dp143
sI10
(dp144
sI11
(dp145
sI12
(dp146
sI13
(dp147
ssI10
(dp148
I0
g75
sI1
g82
sI2
g93
sI3
g102
sI4
g109
sI5
g113
sI6
g122
sI7
g133
sI8
g137
sI9
g144
sI11
(dp149
sI12
(dp150
sI13
(dp151
sI14
(dp152
sI15
(dp153
sI16
(dp154
sI17
(dp155
sI18
(dp156
sI19
(dp157
ssI11
(dp158
I1
g83
sI2
g94
sI3
g103
sI4
g110
sI5
g114
sI6
g123
sI7
g134
sI8
g138
sI9
g145
sI10
g149
sI43
(dp159
sI12
(dp160
sI13
(dp161
sI14
(dp162
sI15
(dp163
sI16
(dp164
sI17
(dp165
sI18
(dp166
sI19
(dp167
ssI12
(dp168
I0
g76
sI1
g84
sI2
g95
sI3
g104
sI5
g115
sI6
g124
sI8
g139
sI9
g146
sI10
g150
sI11
g160
sI13
(dp169
sI14
(dp170
sI15
(dp171
sI16
(dp172
sI17
(dp173
sI18
(dp174
sI19
(dp175
sI20
(dp176
ssI13
(dp177
I0
g77
sI1
g85
sI3
g105
sI5
g116
sI6
g125
sI8
g140
sI9
g147
sI10
g151
sI11
g161
sI12
g169
sI14
(dp178
sI15
(dp179
sI16
(dp180
sI17
(dp181
sI18
(dp182
sI19
(dp183
sI21
(dp184
sI54
(dp185
sI59
(dp186
sI35
(dp187
ssI14
(dp188
I1
g86
sI2
g96
sI4
g111
sI5
g117
sI6
g126
sI8
g141
sI10
g152
sI11
g162
sI12
g170
sI13
g178
sI15
(dp189
sI16
(dp190
sI17
(dp191
sI19
(dp192
sI20
(dp193
ssI15
(dp194
I0
g78
sI1
g87
sI50
(dp195
sI5
g118
sI6
g127
sI7
g135
sI10
g153
sI11
g163
sI12
g171
sI13
g179
sI14
g189
sI16
(dp196
sI17
(dp197
sI18
(dp198
sI19
(dp199
ssI16
(dp200
I1
g88
sI4
g108
sI6
g128
sI7
g132
sI10
g154
sI11
g164
sI12
g172
sI13
g180
sI14
g190
sI15
g196
sI28
(dp201
ssI17
(dp202
I1
g89
sI2
g97
sI5
g119
sI6
g129
sI10
g155
sI11
g165
sI12
g173
sI13
g181
sI14
g191
sI15
g197
sI18
(dp203
sI19
(dp204
sI22
(dp205
sI26
(dp206
ssI18
(dp207
I0
g79
sI1
g90
sI2
g98
sI5
g120
sI39
(dp208
sI10
g156
sI11
g166
sI12
g174
sI13
g182
sI15
g198
sI17
g203
sI19
(dp209
sI57
(dp210
sI33
(dp211
sI42
(dp212
ssI19
(dp213
I2
g99
sI6
g130
sI10
g157
sI11
g167
sI12
g175
sI13
g183
sI14
g192
sI15
g199
sI17
g204
sI18
g209
sI27
(dp214
ssI20
(dp215
I32
(dp216
sI33
(dp217
sI35
(dp218
sI38
(dp219
sI12
g176
sI14
g193
sI58
(dp220
sI30
(dp221
sI0
g80
ssI21
(dp222
I32
(dp223
sI33
(dp224
sI34
(dp225
sI35
(dp226
sI36
(dp227
sI37
(dp228
sI38
(dp229
sI13
g184
sI49
(dp230
sI30
(dp231
sI31
(dp232
ssI22
(dp233
I32
(dp234
sI34
(dp235
sI37
(dp236
sI38
(dp237
sI39
(dp238
sI17
g205
sI30
(dp239
sI31
(dp240
ssI23
(dp241
I32
(dp242
sI33
(dp243
sI30
(dp244
sI31
(dp245
ssI24
(dp246
I34
(dp247
sI36
(dp248
sI30
(dp249
sI31
(dp250
ssI25
(dp251
I32
(dp252
sI33
(dp253
sI34
(dp254
sI35
(dp255
sI37
(dp256
sI38
(dp257
sI30
(dp258
sI31
(dp259
ssI26
(dp260
I32
(dp261
sI33
(dp262
sI34
(dp263
sI35
(dp264
sI36
(dp265
sI37
(dp266
sI39
(dp267
sI17
g206
sI30
(dp268
sI31
(dp269
ssI27
(dp270
I19
g214
sI35
(dp271
sI36
(dp272
sI30
(dp273
sI31
(dp274
ssI28
(dp275
I32
(dp276
sI33
(dp277
sI34
(dp278
sI44
(dp279
sI46
(dp280
sI16
g201
sI30
(dp281
sI31
(dp282
ssI29
(dp283
I32
(dp284
sI33
(dp285
sI30
(dp286
sI31
(dp287
ssI30
(dp288
I32
(dp289
sI33
(dp290
sI34
(dp291
sI35
(dp292
sI36
(dp293
sI37
(dp294
sI38
(dp295
sI39
(dp296
sI52
(dp297
sI20
g221
sI21
g231
sI22
g239
sI23
g244
sI24
g249
sI25
g258
sI26
g268
sI27
g273
sI28
g281
sI29
g286
sI31
(dp298
ssI31
(dp299
I32
(dp300
sI33
(dp301
sI34
(dp302
sI35
(dp303
sI36
(dp304
sI37
(dp305
sI38
(dp306
sI39
(dp307
sI57
(dp308
sI21
g232
sI22
g240
sI23
g245
sI24
g250
sI25
g259
sI26
g269
sI27
g274
sI28
g282
sI29
g287
sI30
g298
ssI32
(dp309
I33
(dp310
sI34
(dp311
sI35
(dp312
sI36
(dp313
sI37
(dp314
sI38
(dp315
sI39
(dp316
sI20
g216
sI21
g223
sI22
g234
sI23
g242
sI25
g252
sI26
g261
sI28
g276
sI29
g284
sI30
g289
sI31
g300
ssI33
(dp317
I32
g310
sI34
(dp318
sI35
(dp319
sI36
(dp320
sI37
(dp321
sI38
(dp322
sI39
(dp323
sI18
g211
sI20
g217
sI21
g224
sI23
g243
sI25
g253
sI26
g262
sI28
g277
sI29
g285
sI30
g290
sI31
g301
ssI34
(dp324
I32
g311
sI33
g318
sI35
(dp325
sI36
(dp326
sI37
(dp327
sI39
(dp328
sI21
g225
sI22
g235
sI57
(dp329
sI24
g247
sI25
g254
sI26
g263
sI28
g278
sI30
g291
sI31
g302
ssI35
(dp330
I32
g312
sI33
g319
sI34
g325
sI36
(dp331
sI37
(dp332
sI38
(dp333
sI39
(dp334
sI13
g187
sI20
g218
sI21
g226
sI25
g255
sI26
g264
sI27
g271
sI58
(dp335
sI30
g292
sI31
g303
ssI36
(dp336
I32
g313
sI33
g320
sI34
g326
sI35
g331
sI44
(dp337
sI21
g227
sI24
g248
sI26
g265
sI27
g272
sI30
g293
sI31
g304
ssI37
(dp338
I32
g314
sI33
g321
sI34
g327
sI35
g332
sI38
(dp339
sI39
(dp340
sI21
g228
sI22
g236
sI25
g256
sI26
g266
sI30
g294
sI31
g305
ssI38
(dp341
I32
g315
sI33
g322
sI35
g333
sI37
g339
sI39
(dp342
sI40
(dp343
sI20
g219
sI21
g229
sI22
g237
sI25
g257
sI30
g295
sI31
g306
ssI39
(dp344
I32
g316
sI33
g323
sI34
g328
sI35
g334
sI37
g340
sI38
g342
sI18
g208
sI22
g238
sI26
g267
sI30
g296
sI31
g307
ssI40
(dp345
I38
g343
sI50
(dp346
sI52
(dp347
sI53
(dp348
sI55
(dp349
sI58
(dp350
ssI41
(dp351
I3
g101
sI50
(dp352
sI51
(dp353
sI52
(dp354
sI53
(dp355
sI54
(dp356
sI55
(dp357
sI56
(dp358
sI57
(dp359
sI58
(dp360
ssI42
(dp361
I18
g212
sI50
(dp362
sI51
(dp363
sI52
(dp364
sI54
(dp365
sI57
(dp366
sI58
(dp367
sI59
(dp368
ssI43
(dp369
I11
g159
sI50
(dp370
sI51
(dp371
sI52
(dp372
sI53
(dp373
ssI44
(dp374
I36
g337
sI9
g143
sI50
(dp375
sI51
(dp376
sI54
(dp377
sI56
(dp378
sI28
g279
ssI45
(dp379
I50
(dp380
sI51
(dp381
sI52
(dp382
sI53
(dp383
sI54
(dp384
sI55
(dp385
sI57
(dp386
sI58
(dp387
ssI46
(dp388
I50
(dp389
sI51
(dp390
sI52
(dp391
sI53
(dp392
sI54
(dp393
sI55
(dp394
sI56
(dp395
sI57
(dp396
sI59
(dp397
sI28
g280
ssI47
(dp398
I56
(dp399
sI3
g106
sI50
(dp400
sI51
(dp401
sI55
(dp402
ssI48
(dp403
I50
(dp404
sI51
(dp405
sI52
(dp406
sI53
(dp407
sI54
(dp408
ssI49
(dp409
I50
(dp410
sI51
(dp411
sI52
(dp412
sI53
(dp413
sI21
g230
ssI50
(dp414
I15
g195
sI40
g346
sI41
g352
sI42
g362
sI43
g370
sI44
g375
sI45
g380
sI46
g389
sI47
g400
sI48
g404
sI49
g410
sI51
(dp415
sI52
(dp416
sI53
(dp417
sI54
(dp418
sI55
(dp419
sI56
(dp420
sI57
(dp421
sI58
(dp422
sI59
(dp423
ssI51
(dp424
I41
g353
sI42
g363
sI43
g371
sI44
g376
sI45
g381
sI46
g390
sI47
g401
sI48
g405
sI49
g411
sI50
g415
sI52
(dp425
sI53
(dp426
sI54
(dp427
sI55
(dp428
sI56
(dp429
sI57
(dp430
sI58
(dp431
sI59
(dp432
ssI52
(dp433
I1
g91
sI40
g347
sI41
g354
sI42
g364
sI43
g372
sI45
g382
sI46
g391
sI48
g406
sI49
g412
sI50
g416
sI51
g425
sI53
(dp434
sI54
(dp435
sI55
(dp436
sI56
(dp437
sI57
(dp438
sI58
(dp439
sI59
(dp440
sI30
g297
ssI53
(dp441
I40
g348
sI41
g355
sI43
g373
sI45
g383
sI46
g392
sI48
g407
sI49
g413
sI50
g417
sI51
g426
sI52
g434
sI54
(dp442
sI55
(dp443
sI56
(dp444
sI57
(dp445
sI58
(dp446
sI59
(dp447
ssI54
(dp448
I41
g356
sI42
g365
sI44
g377
sI45
g384
sI46
g393
sI13
g185
sI48
g408
sI50
g418
sI51
g427
sI52
g435
sI53
g442
sI55
(dp449
sI56
(dp450
sI57
(dp451
sI59
(dp452
ssI55
(dp453
I40
g349
sI41
g357
sI45
g385
sI46
g394
sI47
g402
sI50
g419
sI51
g428
sI52
g436
sI53
g443
sI54
g449
sI56
(dp454
sI57
(dp455
sI58
(dp456
sI59
(dp457
ssI56
(dp458
I41
g358
sI44
g378
sI46
g395
sI47
g399
sI50
g420
sI51
g429
sI52
g437
sI53
g444
sI54
g450
sI55
g454
ssI57
(dp459
I34
g329
sI41
g359
sI42
g366
sI18
g210
sI45
g386
sI46
g396
sI50
g421
sI51
g430
sI52
g438
sI53
g445
sI54
g451
sI55
g455
sI58
(dp460
sI59
(dp461
sI31
g308
ssI58
(dp462
I35
g335
sI40
g350
sI41
g360
sI42
g367
sI45
g387
sI50
g422
sI51
g431
sI52
g439
sI53
g446
sI55
g456
sI57
g460
sI59
(dp463
sI20
g220
ssI59
(dp464
I42
g368
sI13
g186
sI46
g397
sI50
g423
sI51
g432
sI52
g440
sI53
g447
sI54
g452
sI55
g457
sI57
g461
sI58
g463
sssS'adj'
p465
g73
sb.